ARM GAS  /var/folders/zf/mkqpy7tx7p1_khjt1h6hykn40000gn/T//ccF4YHcI.s 			page 1


   1              		.cpu cortex-m0
   2              		.arch armv6s-m
   3              		.fpu softvfp
   4              		.eabi_attribute 20, 1
   5              		.eabi_attribute 21, 1
   6              		.eabi_attribute 23, 3
   7              		.eabi_attribute 24, 1
   8              		.eabi_attribute 25, 1
   9              		.eabi_attribute 26, 1
  10              		.eabi_attribute 30, 1
  11              		.eabi_attribute 34, 0
  12              		.eabi_attribute 18, 4
  13              		.file	"main.c"
  14              		.text
  15              	.Ltext0:
  16              		.cfi_sections	.debug_frame
  17              		.file 1 "Core/Src/main.c"
  18              		.section	.text.MX_GPIO_Init,"ax",%progbits
  19              		.align	1
  20              		.syntax unified
  21              		.code	16
  22              		.thumb_func
  24              	MX_GPIO_Init:
  25              	.LFB366:
   1:Core/Src/main.c **** /* USER CODE BEGIN Header */
   2:Core/Src/main.c **** /**
   3:Core/Src/main.c ****  ******************************************************************************
   4:Core/Src/main.c ****  * @file           : main.c
   5:Core/Src/main.c ****  * @brief          : Main program body
   6:Core/Src/main.c ****  ******************************************************************************
   7:Core/Src/main.c ****  * @attention
   8:Core/Src/main.c ****  *
   9:Core/Src/main.c ****  * Copyright (c) 2023 STMicroelectronics.
  10:Core/Src/main.c ****  * All rights reserved.
  11:Core/Src/main.c ****  *
  12:Core/Src/main.c ****  * This software is licensed under terms that can be found in the LICENSE file
  13:Core/Src/main.c ****  * in the root directory of this software component.
  14:Core/Src/main.c ****  * If no LICENSE file comes with this software, it is provided AS-IS.
  15:Core/Src/main.c ****  *
  16:Core/Src/main.c ****  ******************************************************************************
  17:Core/Src/main.c ****  */
  18:Core/Src/main.c **** /* USER CODE END Header */
  19:Core/Src/main.c **** /* Includes ------------------------------------------------------------------*/
  20:Core/Src/main.c **** #include "main.h"
  21:Core/Src/main.c **** 
  22:Core/Src/main.c **** /* Private includes ----------------------------------------------------------*/
  23:Core/Src/main.c **** /* USER CODE BEGIN Includes */
  24:Core/Src/main.c **** #include <stdio.h>
  25:Core/Src/main.c **** #include <lcd_stm32f0.c>
  26:Core/Src/main.c **** #include "stm32f0xx.h"
  27:Core/Src/main.c **** /* USER CODE END Includes */
  28:Core/Src/main.c **** 
  29:Core/Src/main.c **** /* Private typedef -----------------------------------------------------------*/
  30:Core/Src/main.c **** /* USER CODE BEGIN PTD */
  31:Core/Src/main.c **** typedef struct {
  32:Core/Src/main.c **** 	uint16_t full_data;
  33:Core/Src/main.c **** 	uint16_t data_remaining;
ARM GAS  /var/folders/zf/mkqpy7tx7p1_khjt1h6hykn40000gn/T//ccF4YHcI.s 			page 2


  34:Core/Src/main.c **** 	uint16_t bits_left;
  35:Core/Src/main.c **** } DataStruct;
  36:Core/Src/main.c **** 
  37:Core/Src/main.c **** enum state_t { IDLE,
  38:Core/Src/main.c **** 			   SENDING,
  39:Core/Src/main.c **** 			   DONE } current_state;
  40:Core/Src/main.c **** enum mode_t { TRANSMISSION,
  41:Core/Src/main.c **** 			  VERIFICATION } current_mode;
  42:Core/Src/main.c **** /* USER CODE END PTD */
  43:Core/Src/main.c **** 
  44:Core/Src/main.c **** /* Private define ------------------------------------------------------------*/
  45:Core/Src/main.c **** /* USER CODE BEGIN PD */
  46:Core/Src/main.c **** 
  47:Core/Src/main.c **** /* USER CODE END PD */
  48:Core/Src/main.c **** 
  49:Core/Src/main.c **** /* Private macro -------------------------------------------------------------*/
  50:Core/Src/main.c **** /* USER CODE BEGIN PM */
  51:Core/Src/main.c **** 
  52:Core/Src/main.c **** /* USER CODE END PM */
  53:Core/Src/main.c **** 
  54:Core/Src/main.c **** /* Private variables ---------------------------------------------------------*/
  55:Core/Src/main.c **** ADC_HandleTypeDef hadc;
  56:Core/Src/main.c **** 
  57:Core/Src/main.c **** TIM_HandleTypeDef htim3;
  58:Core/Src/main.c **** TIM_HandleTypeDef htim16;
  59:Core/Src/main.c **** 
  60:Core/Src/main.c **** /* USER CODE BEGIN PV */
  61:Core/Src/main.c **** uint32_t prev_millis;
  62:Core/Src/main.c **** uint32_t curr_millis;
  63:Core/Src/main.c **** uint32_t delay_t = 500;	 // Initialise delay to 500ms
  64:Core/Src/main.c **** uint16_t adc_val;
  65:Core/Src/main.c **** DataStruct data;
  66:Core/Src/main.c **** uint8_t totalBits;
  67:Core/Src/main.c **** uint8_t delayT = 3;
  68:Core/Src/main.c **** uint8_t transmittionStarted = 0;
  69:Core/Src/main.c **** uint32_t num_samples;
  70:Core/Src/main.c **** /* USER CODE END PV */
  71:Core/Src/main.c **** 
  72:Core/Src/main.c **** /* Private function prototypes -----------------------------------------------*/
  73:Core/Src/main.c **** void SystemClock_Config(void);
  74:Core/Src/main.c **** static void MX_GPIO_Init(void);
  75:Core/Src/main.c **** static void MX_ADC_Init(void);
  76:Core/Src/main.c **** static void MX_TIM3_Init(void);
  77:Core/Src/main.c **** static void MX_TIM16_Init(void);
  78:Core/Src/main.c **** 
  79:Core/Src/main.c **** /* USER CODE BEGIN PFP */
  80:Core/Src/main.c **** void TIM16_IRQHandler(void);
  81:Core/Src/main.c **** void EXTI0_1_IRQHandler(void);
  82:Core/Src/main.c **** void writeLCD(char* char_in);
  83:Core/Src/main.c **** uint8_t getBit(DataStruct* d);
  84:Core/Src/main.c **** uint32_t pollADC(void);
  85:Core/Src/main.c **** void sampleADC(void);
  86:Core/Src/main.c **** void displayLCD(void);
  87:Core/Src/main.c **** void trasmitData(void);
  88:Core/Src/main.c **** /* USER CODE END PFP */
  89:Core/Src/main.c **** 
  90:Core/Src/main.c **** /* Private user code ---------------------------------------------------------*/
ARM GAS  /var/folders/zf/mkqpy7tx7p1_khjt1h6hykn40000gn/T//ccF4YHcI.s 			page 3


  91:Core/Src/main.c **** /* USER CODE BEGIN 0 */
  92:Core/Src/main.c **** 
  93:Core/Src/main.c **** /* USER CODE END 0 */
  94:Core/Src/main.c **** 
  95:Core/Src/main.c **** /**
  96:Core/Src/main.c ****  * @brief  The application entry point.
  97:Core/Src/main.c ****  * @retval int
  98:Core/Src/main.c ****  */
  99:Core/Src/main.c **** int main(void) {
 100:Core/Src/main.c **** 	/* USER CODE BEGIN 1 */
 101:Core/Src/main.c **** 	current_state = IDLE;
 102:Core/Src/main.c **** 	totalBits = 18;
 103:Core/Src/main.c **** 
 104:Core/Src/main.c **** 	/* USER CODE END 1 */
 105:Core/Src/main.c **** 
 106:Core/Src/main.c **** 	/* MCU Configuration--------------------------------------------------------*/
 107:Core/Src/main.c **** 
 108:Core/Src/main.c **** 	/* Reset of all peripherals, Initializes the Flash interface and the Systick. */
 109:Core/Src/main.c **** 	HAL_Init();
 110:Core/Src/main.c **** 
 111:Core/Src/main.c **** 	/* USER CODE BEGIN Init */
 112:Core/Src/main.c **** 	/* USER CODE END Init */
 113:Core/Src/main.c **** 
 114:Core/Src/main.c **** 	/* Configure the system clock */
 115:Core/Src/main.c **** 	SystemClock_Config();
 116:Core/Src/main.c **** 
 117:Core/Src/main.c **** 	/* USER CODE BEGIN SysInit */
 118:Core/Src/main.c **** 	/* USER CODE END SysInit */
 119:Core/Src/main.c **** 
 120:Core/Src/main.c **** 	/* Initialize all configured peripherals */
 121:Core/Src/main.c **** 	MX_GPIO_Init();
 122:Core/Src/main.c **** 	MX_ADC_Init();
 123:Core/Src/main.c **** 	MX_TIM3_Init();
 124:Core/Src/main.c **** 	MX_TIM16_Init();
 125:Core/Src/main.c **** 	/* USER CODE BEGIN 2 */
 126:Core/Src/main.c **** 	init_LCD();
 127:Core/Src/main.c **** 	HAL_GPIO_WritePin(LED_data_GPIO_Port, LED_data_Pin, 1);
 128:Core/Src/main.c **** 
 129:Core/Src/main.c **** 	/* USER CODE END 2 */
 130:Core/Src/main.c **** 
 131:Core/Src/main.c **** 	/* Infinite loop */
 132:Core/Src/main.c **** 	/* USER CODE BEGIN WHILE */
 133:Core/Src/main.c **** 	while (1) {
 134:Core/Src/main.c **** 		// Toggle LED0
 135:Core/Src/main.c **** 		// HAL_GPIO_TogglePin(GPIOB, LED7_Pin);
 136:Core/Src/main.c **** 		// if (transmittionStarted) {
 137:Core/Src/main.c **** 		// } else {
 138:Core/Src/main.c **** 		sampleADC();
 139:Core/Src/main.c **** 		displayLCD();
 140:Core/Src/main.c **** 		// }
 141:Core/Src/main.c **** 
 142:Core/Src/main.c **** 		// Wait for delay ms
 143:Core/Src/main.c **** 		HAL_Delay(delay_t);
 144:Core/Src/main.c **** 		/* USER CODE END WHILE */
 145:Core/Src/main.c **** 		/* USER CODE BEGIN 3 */
 146:Core/Src/main.c **** 	}
 147:Core/Src/main.c **** 	/* USER CODE END 3 */
ARM GAS  /var/folders/zf/mkqpy7tx7p1_khjt1h6hykn40000gn/T//ccF4YHcI.s 			page 4


 148:Core/Src/main.c **** }
 149:Core/Src/main.c **** 
 150:Core/Src/main.c **** /* USER CODE BEGIN 4 */
 151:Core/Src/main.c **** 
 152:Core/Src/main.c **** /*
 153:Core/Src/main.c ****  * This function calculates the value of the decValue represented in base radValue as a
 154:Core/Src/main.c ****  * char array.
 155:Core/Src/main.c ****  */
 156:Core/Src/main.c **** char* Dec2RadixI(int decValue, int radValue, char* output_string) {
 157:Core/Src/main.c **** 	// When decValue is zero, it returns "0" because 0 is 0 in any radix
 158:Core/Src/main.c **** 	if (!decValue) {
 159:Core/Src/main.c **** 		// char* output_string = malloc(2);
 160:Core/Src/main.c **** 		output_string[0] = '0';	 // "0"
 161:Core/Src/main.c **** 		output_string[1] = 0;	 // '\0'
 162:Core/Src/main.c **** 		return output_string;
 163:Core/Src/main.c **** 	}
 164:Core/Src/main.c **** 
 165:Core/Src/main.c **** 	// int min_chars = ceil(log(decValue + 1) / log(radValue));  // The minimum number of characters r
 166:Core/Src/main.c **** 
 167:Core/Src/main.c **** 	const char characters[] = "0123456789ABCDEF";  // The characters used in representing the bases
 168:Core/Src/main.c **** 
 169:Core/Src/main.c **** 	// char* output_string = malloc(min_chars + 1);  // Get space for the digits
 170:Core/Src/main.c **** 	output_string += 16;  // go to the end of the array
 171:Core/Src/main.c **** 	*output_string = 0;	  // put a null terminator at the end of the array
 172:Core/Src/main.c **** 
 173:Core/Src/main.c **** 	while (decValue) {
 174:Core/Src/main.c **** 		--output_string;								   // go one byte back
 175:Core/Src/main.c **** 		*output_string = characters[decValue % radValue];  // put the remainder of decValue/radValue in t
 176:Core/Src/main.c **** 		decValue /= radValue;							   // divide decValue by radValue
 177:Core/Src/main.c **** 	}
 178:Core/Src/main.c **** 
 179:Core/Src/main.c **** 	return output_string;
 180:Core/Src/main.c **** }
 181:Core/Src/main.c **** 
 182:Core/Src/main.c **** void displayLCD() {
 183:Core/Src/main.c **** 	char value[17];
 184:Core/Src/main.c **** 	lcd_command(CLEAR);
 185:Core/Src/main.c **** 	switch (current_state) {
 186:Core/Src/main.c **** 		case IDLE:
 187:Core/Src/main.c **** 			sprintf(value, "ADC: %lu", adc_val);
 188:Core/Src/main.c **** 			lcd_putstring(value);
 189:Core/Src/main.c **** 			lcd_command(LINE_TWO);
 190:Core/Src/main.c **** 			sprintf(value, "samples: %lu", num_samples);
 191:Core/Src/main.c **** 			lcd_putstring(value);
 192:Core/Src/main.c **** 			break;
 193:Core/Src/main.c **** 
 194:Core/Src/main.c **** 		case SENDING:
 195:Core/Src/main.c **** 			// sprintf(value, "Sending: %lu", data.full_data);
 196:Core/Src/main.c **** 			sprintf(value, "################");
 197:Core/Src/main.c **** 			Dec2RadixI(data.full_data, 2, value);
 198:Core/Src/main.c **** 			lcd_putstring(value);
 199:Core/Src/main.c **** 			lcd_command(LINE_TWO);
 200:Core/Src/main.c **** 			sprintf(value, "################");
 201:Core/Src/main.c **** 			Dec2RadixI(data.data_remaining, 2, value);
 202:Core/Src/main.c **** 			lcd_putstring(value);
 203:Core/Src/main.c **** 			break;
 204:Core/Src/main.c **** 		case DONE:
ARM GAS  /var/folders/zf/mkqpy7tx7p1_khjt1h6hykn40000gn/T//ccF4YHcI.s 			page 5


 205:Core/Src/main.c **** 			// sprintf(value, "sent %lu", data.full_data);
 206:Core/Src/main.c **** 			sprintf(value, "################");
 207:Core/Src/main.c **** 			Dec2RadixI(data.full_data, 2, value);
 208:Core/Src/main.c **** 			lcd_putstring(value);
 209:Core/Src/main.c **** 			lcd_command(LINE_TWO);
 210:Core/Src/main.c **** 			sprintf(value, "samples: %lu", num_samples);
 211:Core/Src/main.c **** 			lcd_putstring(value);
 212:Core/Src/main.c **** 			break;
 213:Core/Src/main.c **** 		default:
 214:Core/Src/main.c **** 			break;
 215:Core/Src/main.c **** 	}
 216:Core/Src/main.c **** }
 217:Core/Src/main.c **** 
 218:Core/Src/main.c **** void EXTI0_1_IRQHandler(void) {
 219:Core/Src/main.c **** 	// debounce step
 220:Core/Src/main.c **** 	curr_millis = HAL_GetTick();
 221:Core/Src/main.c **** 	if (curr_millis - prev_millis < 100) {
 222:Core/Src/main.c **** 		HAL_GPIO_EXTI_IRQHandler(Button0_Pin);	// Clear interrupt flags
 223:Core/Src/main.c **** 		return;
 224:Core/Src/main.c **** 	}
 225:Core/Src/main.c **** 	prev_millis = HAL_GetTick();
 226:Core/Src/main.c **** 
 227:Core/Src/main.c **** 	// todo: Start data transmission when this is clicked
 228:Core/Src/main.c **** 
 229:Core/Src/main.c **** 	switch (current_state) {
 230:Core/Src/main.c **** 		case IDLE:
 231:Core/Src/main.c **** 			data.full_data = adc_val;
 232:Core/Src/main.c **** 			data.bits_left = 16;
 233:Core/Src/main.c **** 			data.data_remaining = data.full_data;
 234:Core/Src/main.c **** 			current_state = SENDING;
 235:Core/Src/main.c **** 			HAL_TIM_Base_Start_IT(&htim16);	 // Start the timer
 236:Core/Src/main.c **** 			break;
 237:Core/Src/main.c **** 		case DONE:
 238:Core/Src/main.c **** 			data.full_data = 0;
 239:Core/Src/main.c **** 			data.bits_left = 0;
 240:Core/Src/main.c **** 			data.data_remaining = 0;
 241:Core/Src/main.c **** 			current_state = IDLE;
 242:Core/Src/main.c **** 			totalBits = 18;
 243:Core/Src/main.c **** 			// HAL_GPIO_TogglePin(GPIOB, LED7_Pin);
 244:Core/Src/main.c **** 			break;
 245:Core/Src/main.c **** 		default:
 246:Core/Src/main.c **** 			break;
 247:Core/Src/main.c **** 	}
 248:Core/Src/main.c **** 
 249:Core/Src/main.c **** 	// data.bits_left = 16;
 250:Core/Src/main.c **** 	// data.data_remaining = adc_val;
 251:Core/Src/main.c **** 	// transmittionStarted = 1;
 252:Core/Src/main.c **** 
 253:Core/Src/main.c **** 	HAL_GPIO_EXTI_IRQHandler(Button0_Pin);	// Clear interrupt flags
 254:Core/Src/main.c **** }
 255:Core/Src/main.c **** 
 256:Core/Src/main.c **** void writeLCD(char* char_in) {
 257:Core/Src/main.c **** 	lcd_command(CLEAR);		 // Clear display
 258:Core/Src/main.c **** 	lcd_putstring(char_in);	 // write to display
 259:Core/Src/main.c **** 							 // delay(3000);			 // Delay
 260:Core/Src/main.c **** }
 261:Core/Src/main.c **** 
ARM GAS  /var/folders/zf/mkqpy7tx7p1_khjt1h6hykn40000gn/T//ccF4YHcI.s 			page 6


 262:Core/Src/main.c **** // Get ADC value
 263:Core/Src/main.c **** uint32_t pollADC(void) {
 264:Core/Src/main.c **** 	HAL_ADC_Start(&hadc);					 // Start sampling
 265:Core/Src/main.c **** 	uint32_t val = HAL_ADC_GetValue(&hadc);	 // Get ADC value
 266:Core/Src/main.c **** 	HAL_ADC_Stop(&hadc);					 // Stop sampling
 267:Core/Src/main.c **** 	return val;
 268:Core/Src/main.c **** }
 269:Core/Src/main.c **** 
 270:Core/Src/main.c **** /**
 271:Core/Src/main.c ****  * @brief transmits a bit every tick
 272:Core/Src/main.c ****  *
 273:Core/Src/main.c ****  */
 274:Core/Src/main.c **** void TIM16_IRQHandler(void) {
 275:Core/Src/main.c **** 	// if (delayT) {
 276:Core/Src/main.c **** 	// 	HAL_GPIO_WritePin(LED_data_GPIO_Port, LED_data_Pin, 1);
 277:Core/Src/main.c **** 	// 	delayT--;
 278:Core/Src/main.c **** 	// 	HAL_TIM_IRQHandler(&htim16);
 279:Core/Src/main.c **** 	// 	return;
 280:Core/Src/main.c **** 	// }
 281:Core/Src/main.c **** 
 282:Core/Src/main.c **** 	trasmitData();
 283:Core/Src/main.c **** 	// char value[9];
 284:Core/Src/main.c **** 
 285:Core/Src/main.c **** 	// sprintf(value, "%d", adc_val);	// convert to string
 286:Core/Src/main.c **** 	// lcd_command(CLEAR);
 287:Core/Src/main.c **** 	// lcd_putstring(value);
 288:Core/Src/main.c **** 
 289:Core/Src/main.c **** 	// // adc_val = pollADC();								// Get the value of the ADC
 290:Core/Src/main.c **** 	// sprintf(value, "%d %d", data.data_remaining, totalBits);  // convert to string
 291:Core/Src/main.c **** 	// // writeLCD(value);										  // Write value to LCD
 292:Core/Src/main.c **** 	// lcd_command(LINE_TWO);
 293:Core/Src/main.c **** 	// lcd_putstring(value);
 294:Core/Src/main.c **** 	HAL_TIM_IRQHandler(&htim16);
 295:Core/Src/main.c **** }
 296:Core/Src/main.c **** 
 297:Core/Src/main.c **** /**
 298:Core/Src/main.c ****  * @brief Updates the value of adc_val
 299:Core/Src/main.c ****  *
 300:Core/Src/main.c ****  */
 301:Core/Src/main.c **** void sampleADC() {
 302:Core/Src/main.c **** 	adc_val = pollADC();  // Get the value of the ADC
 303:Core/Src/main.c **** }
 304:Core/Src/main.c **** 
 305:Core/Src/main.c **** /**
 306:Core/Src/main.c ****  * @brief Remove the least significant bit from the data until there are no more bits left.
 307:Core/Src/main.c ****  *
 308:Core/Src/main.c ****  * @return uint8_t
 309:Core/Src/main.c ****  */
 310:Core/Src/main.c **** uint8_t getBit(DataStruct* d) {
 311:Core/Src/main.c **** 	if (d->bits_left > 0) {
 312:Core/Src/main.c **** 		uint8_t bit_out = d->data_remaining % 2;
 313:Core/Src/main.c **** 		d->bits_left--;
 314:Core/Src/main.c **** 		d->data_remaining /= 2;
 315:Core/Src/main.c **** 		return bit_out;
 316:Core/Src/main.c **** 	}
 317:Core/Src/main.c **** 	return 0;
 318:Core/Src/main.c **** }
ARM GAS  /var/folders/zf/mkqpy7tx7p1_khjt1h6hykn40000gn/T//ccF4YHcI.s 			page 7


 319:Core/Src/main.c **** 
 320:Core/Src/main.c **** void trasmitData(void) {
 321:Core/Src/main.c **** 	switch (totalBits) {
 322:Core/Src/main.c **** 		case 18:
 323:Core/Src/main.c **** 			HAL_GPIO_WritePin(LED_data_GPIO_Port, LED_data_Pin, 0);
 324:Core/Src/main.c **** 			totalBits--;
 325:Core/Src/main.c **** 			break;
 326:Core/Src/main.c **** 		case 1:
 327:Core/Src/main.c **** 			HAL_GPIO_WritePin(LED_data_GPIO_Port, LED_data_Pin, 0);
 328:Core/Src/main.c **** 			totalBits--;
 329:Core/Src/main.c **** 			break;
 330:Core/Src/main.c **** 		case 0:
 331:Core/Src/main.c **** 			HAL_GPIO_WritePin(LED_data_GPIO_Port, LED_data_Pin, 1);
 332:Core/Src/main.c **** 			current_state = DONE;
 333:Core/Src/main.c **** 			num_samples++;
 334:Core/Src/main.c **** 			HAL_TIM_Base_Stop_IT(&htim16);
 335:Core/Src/main.c **** 			break;
 336:Core/Src/main.c **** 		default:
 337:Core/Src/main.c **** 			HAL_GPIO_WritePin(LED_data_GPIO_Port, LED_data_Pin, getBit(&data));
 338:Core/Src/main.c **** 			totalBits--;
 339:Core/Src/main.c **** 			break;
 340:Core/Src/main.c **** 	}
 341:Core/Src/main.c **** }
 342:Core/Src/main.c **** 
 343:Core/Src/main.c **** /**
 344:Core/Src/main.c ****  * @brief System Clock Configuration
 345:Core/Src/main.c ****  * @retval None
 346:Core/Src/main.c ****  */
 347:Core/Src/main.c **** void SystemClock_Config(void) {
 348:Core/Src/main.c **** 	LL_FLASH_SetLatency(LL_FLASH_LATENCY_0);
 349:Core/Src/main.c **** 	while (LL_FLASH_GetLatency() != LL_FLASH_LATENCY_0) {
 350:Core/Src/main.c **** 	}
 351:Core/Src/main.c **** 	LL_RCC_HSI_Enable();
 352:Core/Src/main.c **** 
 353:Core/Src/main.c **** 	/* Wait till HSI is ready */
 354:Core/Src/main.c **** 	while (LL_RCC_HSI_IsReady() != 1) {
 355:Core/Src/main.c **** 	}
 356:Core/Src/main.c **** 	LL_RCC_HSI_SetCalibTrimming(16);
 357:Core/Src/main.c **** 	LL_RCC_HSI14_Enable();
 358:Core/Src/main.c **** 
 359:Core/Src/main.c **** 	/* Wait till HSI14 is ready */
 360:Core/Src/main.c **** 	while (LL_RCC_HSI14_IsReady() != 1) {
 361:Core/Src/main.c **** 	}
 362:Core/Src/main.c **** 	LL_RCC_HSI14_SetCalibTrimming(16);
 363:Core/Src/main.c **** 	LL_RCC_SetAHBPrescaler(LL_RCC_SYSCLK_DIV_1);
 364:Core/Src/main.c **** 	LL_RCC_SetAPB1Prescaler(LL_RCC_APB1_DIV_1);
 365:Core/Src/main.c **** 	LL_RCC_SetSysClkSource(LL_RCC_SYS_CLKSOURCE_HSI);
 366:Core/Src/main.c **** 
 367:Core/Src/main.c **** 	/* Wait till System clock is ready */
 368:Core/Src/main.c **** 	while (LL_RCC_GetSysClkSource() != LL_RCC_SYS_CLKSOURCE_STATUS_HSI) {
 369:Core/Src/main.c **** 	}
 370:Core/Src/main.c **** 	LL_SetSystemCoreClock(8000000);
 371:Core/Src/main.c **** 
 372:Core/Src/main.c **** 	/* Update the time base */
 373:Core/Src/main.c **** 	if (HAL_InitTick(TICK_INT_PRIORITY) != HAL_OK) {
 374:Core/Src/main.c **** 		Error_Handler();
 375:Core/Src/main.c **** 	}
ARM GAS  /var/folders/zf/mkqpy7tx7p1_khjt1h6hykn40000gn/T//ccF4YHcI.s 			page 8


 376:Core/Src/main.c **** 	LL_RCC_HSI14_EnableADCControl();
 377:Core/Src/main.c **** }
 378:Core/Src/main.c **** 
 379:Core/Src/main.c **** /**
 380:Core/Src/main.c ****  * @brief ADC Initialization Function
 381:Core/Src/main.c ****  * @param None
 382:Core/Src/main.c ****  * @retval None
 383:Core/Src/main.c ****  */
 384:Core/Src/main.c **** static void MX_ADC_Init(void) {
 385:Core/Src/main.c **** 	/* USER CODE BEGIN ADC_Init 0 */
 386:Core/Src/main.c **** 	/* USER CODE END ADC_Init 0 */
 387:Core/Src/main.c **** 
 388:Core/Src/main.c **** 	ADC_ChannelConfTypeDef sConfig = {0};
 389:Core/Src/main.c **** 
 390:Core/Src/main.c **** 	/* USER CODE BEGIN ADC_Init 1 */
 391:Core/Src/main.c **** 
 392:Core/Src/main.c **** 	/* USER CODE END ADC_Init 1 */
 393:Core/Src/main.c **** 
 394:Core/Src/main.c **** 	/** Configure the global features of the ADC (Clock, Resolution, Data Alignment and number of conv
 395:Core/Src/main.c **** 	 */
 396:Core/Src/main.c **** 	hadc.Instance = ADC1;
 397:Core/Src/main.c **** 	hadc.Init.ClockPrescaler = ADC_CLOCK_ASYNC_DIV1;
 398:Core/Src/main.c **** 	hadc.Init.Resolution = ADC_RESOLUTION_12B;
 399:Core/Src/main.c **** 	hadc.Init.DataAlign = ADC_DATAALIGN_RIGHT;
 400:Core/Src/main.c **** 	hadc.Init.ScanConvMode = ADC_SCAN_DIRECTION_FORWARD;
 401:Core/Src/main.c **** 	hadc.Init.EOCSelection = ADC_EOC_SINGLE_CONV;
 402:Core/Src/main.c **** 	hadc.Init.LowPowerAutoWait = DISABLE;
 403:Core/Src/main.c **** 	hadc.Init.LowPowerAutoPowerOff = DISABLE;
 404:Core/Src/main.c **** 	hadc.Init.ContinuousConvMode = DISABLE;
 405:Core/Src/main.c **** 	hadc.Init.DiscontinuousConvMode = DISABLE;
 406:Core/Src/main.c **** 	hadc.Init.ExternalTrigConv = ADC_SOFTWARE_START;
 407:Core/Src/main.c **** 	hadc.Init.ExternalTrigConvEdge = ADC_EXTERNALTRIGCONVEDGE_NONE;
 408:Core/Src/main.c **** 	hadc.Init.DMAContinuousRequests = DISABLE;
 409:Core/Src/main.c **** 	hadc.Init.Overrun = ADC_OVR_DATA_PRESERVED;
 410:Core/Src/main.c **** 	if (HAL_ADC_Init(&hadc) != HAL_OK) {
 411:Core/Src/main.c **** 		Error_Handler();
 412:Core/Src/main.c **** 	}
 413:Core/Src/main.c **** 
 414:Core/Src/main.c **** 	/** Configure for the selected ADC regular channel to be converted.
 415:Core/Src/main.c **** 	 */
 416:Core/Src/main.c **** 	sConfig.Channel = ADC_CHANNEL_6;
 417:Core/Src/main.c **** 	sConfig.Rank = ADC_RANK_CHANNEL_NUMBER;
 418:Core/Src/main.c **** 	sConfig.SamplingTime = ADC_SAMPLETIME_1CYCLE_5;
 419:Core/Src/main.c **** 	if (HAL_ADC_ConfigChannel(&hadc, &sConfig) != HAL_OK) {
 420:Core/Src/main.c **** 		Error_Handler();
 421:Core/Src/main.c **** 	}
 422:Core/Src/main.c **** 	/* USER CODE BEGIN ADC_Init 2 */
 423:Core/Src/main.c **** 	ADC1->CR |= ADC_CR_ADCAL;
 424:Core/Src/main.c **** 	while (ADC1->CR & ADC_CR_ADCAL)
 425:Core/Src/main.c **** 		;				   // Calibrate the ADC
 426:Core/Src/main.c **** 	ADC1->CR |= (1 << 0);  // Enable ADC
 427:Core/Src/main.c **** 	while ((ADC1->ISR & (1 << 0)) == 0)
 428:Core/Src/main.c **** 		;  // Wait for ADC ready
 429:Core/Src/main.c **** 		   /* USER CODE END ADC_Init 2 */
 430:Core/Src/main.c **** }
 431:Core/Src/main.c **** 
 432:Core/Src/main.c **** /**
ARM GAS  /var/folders/zf/mkqpy7tx7p1_khjt1h6hykn40000gn/T//ccF4YHcI.s 			page 9


 433:Core/Src/main.c ****  * @brief TIM3 Initialization Function
 434:Core/Src/main.c ****  * @param None
 435:Core/Src/main.c ****  * @retval None
 436:Core/Src/main.c ****  */
 437:Core/Src/main.c **** static void MX_TIM3_Init(void) {
 438:Core/Src/main.c **** 	/* USER CODE BEGIN TIM3_Init 0 */
 439:Core/Src/main.c **** 
 440:Core/Src/main.c **** 	/* USER CODE END TIM3_Init 0 */
 441:Core/Src/main.c **** 
 442:Core/Src/main.c **** 	TIM_ClockConfigTypeDef sClockSourceConfig = {0};
 443:Core/Src/main.c **** 	TIM_MasterConfigTypeDef sMasterConfig = {0};
 444:Core/Src/main.c **** 
 445:Core/Src/main.c **** 	/* USER CODE BEGIN TIM3_Init 1 */
 446:Core/Src/main.c **** 
 447:Core/Src/main.c **** 	/* USER CODE END TIM3_Init 1 */
 448:Core/Src/main.c **** 	htim3.Instance = TIM3;
 449:Core/Src/main.c **** 	htim3.Init.Prescaler = 0;
 450:Core/Src/main.c **** 	htim3.Init.CounterMode = TIM_COUNTERMODE_UP;
 451:Core/Src/main.c **** 	htim3.Init.Period = 47999;
 452:Core/Src/main.c **** 	htim3.Init.ClockDivision = TIM_CLOCKDIVISION_DIV1;
 453:Core/Src/main.c **** 	htim3.Init.AutoReloadPreload = TIM_AUTORELOAD_PRELOAD_DISABLE;
 454:Core/Src/main.c **** 	if (HAL_TIM_Base_Init(&htim3) != HAL_OK) {
 455:Core/Src/main.c **** 		Error_Handler();
 456:Core/Src/main.c **** 	}
 457:Core/Src/main.c **** 	sClockSourceConfig.ClockSource = TIM_CLOCKSOURCE_INTERNAL;
 458:Core/Src/main.c **** 	if (HAL_TIM_ConfigClockSource(&htim3, &sClockSourceConfig) != HAL_OK) {
 459:Core/Src/main.c **** 		Error_Handler();
 460:Core/Src/main.c **** 	}
 461:Core/Src/main.c **** 	sMasterConfig.MasterOutputTrigger = TIM_TRGO_RESET;
 462:Core/Src/main.c **** 	sMasterConfig.MasterSlaveMode = TIM_MASTERSLAVEMODE_DISABLE;
 463:Core/Src/main.c **** 	if (HAL_TIMEx_MasterConfigSynchronization(&htim3, &sMasterConfig) != HAL_OK) {
 464:Core/Src/main.c **** 		Error_Handler();
 465:Core/Src/main.c **** 	}
 466:Core/Src/main.c **** 	/* USER CODE BEGIN TIM3_Init 2 */
 467:Core/Src/main.c **** 
 468:Core/Src/main.c **** 	/* USER CODE END TIM3_Init 2 */
 469:Core/Src/main.c **** }
 470:Core/Src/main.c **** 
 471:Core/Src/main.c **** /**
 472:Core/Src/main.c ****  * @brief TIM16 Initialization Function
 473:Core/Src/main.c ****  * @param None
 474:Core/Src/main.c ****  * @retval None
 475:Core/Src/main.c ****  */
 476:Core/Src/main.c **** static void MX_TIM16_Init(void) {
 477:Core/Src/main.c **** 	/* USER CODE BEGIN TIM16_Init 0 */
 478:Core/Src/main.c **** 
 479:Core/Src/main.c **** 	/* USER CODE END TIM16_Init 0 */
 480:Core/Src/main.c **** 
 481:Core/Src/main.c **** 	/* USER CODE BEGIN TIM16_Init 1 */
 482:Core/Src/main.c **** 
 483:Core/Src/main.c **** 	/* USER CODE END TIM16_Init 1 */
 484:Core/Src/main.c **** 	htim16.Instance = TIM16;
 485:Core/Src/main.c **** 	htim16.Init.Prescaler = 8000 - 1;
 486:Core/Src/main.c **** 	htim16.Init.CounterMode = TIM_COUNTERMODE_UP;
 487:Core/Src/main.c **** 	htim16.Init.Period = 1000 - 1;
 488:Core/Src/main.c **** 	htim16.Init.ClockDivision = TIM_CLOCKDIVISION_DIV1;
 489:Core/Src/main.c **** 	htim16.Init.RepetitionCounter = 0;
ARM GAS  /var/folders/zf/mkqpy7tx7p1_khjt1h6hykn40000gn/T//ccF4YHcI.s 			page 10


 490:Core/Src/main.c **** 	htim16.Init.AutoReloadPreload = TIM_AUTORELOAD_PRELOAD_ENABLE;
 491:Core/Src/main.c **** 	if (HAL_TIM_Base_Init(&htim16) != HAL_OK) {
 492:Core/Src/main.c **** 		Error_Handler();
 493:Core/Src/main.c **** 	}
 494:Core/Src/main.c **** 	/* USER CODE BEGIN TIM16_Init 2 */
 495:Core/Src/main.c **** 	// NVIC_EnableIRQ(TIM16_IRQn);
 496:Core/Src/main.c **** 	HAL_NVIC_SetPriority(TIM16_IRQn, 0, 0);
 497:Core/Src/main.c **** 	HAL_NVIC_EnableIRQ(TIM16_IRQn);
 498:Core/Src/main.c **** 	/* USER CODE END TIM16_Init 2 */
 499:Core/Src/main.c **** }
 500:Core/Src/main.c **** 
 501:Core/Src/main.c **** /**
 502:Core/Src/main.c ****  * @brief GPIO Initialization Function
 503:Core/Src/main.c ****  * @param None
 504:Core/Src/main.c ****  * @retval None
 505:Core/Src/main.c ****  */
 506:Core/Src/main.c **** static void MX_GPIO_Init(void) {
  26              		.loc 1 506 32 view -0
  27              		.cfi_startproc
  28              		@ args = 0, pretend = 0, frame = 48
  29              		@ frame_needed = 0, uses_anonymous_args = 0
  30 0000 F0B5     		push	{r4, r5, r6, r7, lr}
  31              		.cfi_def_cfa_offset 20
  32              		.cfi_offset 4, -20
  33              		.cfi_offset 5, -16
  34              		.cfi_offset 6, -12
  35              		.cfi_offset 7, -8
  36              		.cfi_offset 14, -4
  37 0002 C646     		mov	lr, r8
  38 0004 00B5     		push	{lr}
  39              		.cfi_def_cfa_offset 24
  40              		.cfi_offset 8, -24
  41 0006 8CB0     		sub	sp, sp, #48
  42              		.cfi_def_cfa_offset 72
 507:Core/Src/main.c **** 	LL_EXTI_InitTypeDef EXTI_InitStruct = {0};
  43              		.loc 1 507 2 view .LVU1
  44              		.loc 1 507 22 is_stmt 0 view .LVU2
  45 0008 0AAE     		add	r6, sp, #40
  46 000a 0822     		movs	r2, #8
  47 000c 0021     		movs	r1, #0
  48 000e 3000     		movs	r0, r6
  49 0010 FFF7FEFF 		bl	memset
  50              	.LVL0:
 508:Core/Src/main.c **** 	LL_GPIO_InitTypeDef GPIO_InitStruct = {0};
  51              		.loc 1 508 2 is_stmt 1 view .LVU3
  52              		.loc 1 508 22 is_stmt 0 view .LVU4
  53 0014 1822     		movs	r2, #24
  54 0016 0021     		movs	r1, #0
  55 0018 04A8     		add	r0, sp, #16
  56 001a FFF7FEFF 		bl	memset
  57              	.LVL1:
 509:Core/Src/main.c **** 	/* USER CODE BEGIN MX_GPIO_Init_1 */
 510:Core/Src/main.c **** 	/* USER CODE END MX_GPIO_Init_1 */
 511:Core/Src/main.c **** 
 512:Core/Src/main.c **** 	/* GPIO Ports Clock Enable */
 513:Core/Src/main.c **** 	LL_AHB1_GRP1_EnableClock(LL_AHB1_GRP1_PERIPH_GPIOF);
  58              		.loc 1 513 2 is_stmt 1 view .LVU5
ARM GAS  /var/folders/zf/mkqpy7tx7p1_khjt1h6hykn40000gn/T//ccF4YHcI.s 			page 11


  59              	.LBB46:
  60              	.LBI46:
  61              		.file 2 "Drivers/STM32F0xx_HAL_Driver/Inc/stm32f0xx_ll_bus.h"
   1:Drivers/STM32F0xx_HAL_Driver/Inc/stm32f0xx_ll_bus.h **** /**
   2:Drivers/STM32F0xx_HAL_Driver/Inc/stm32f0xx_ll_bus.h ****   ******************************************************************************
   3:Drivers/STM32F0xx_HAL_Driver/Inc/stm32f0xx_ll_bus.h ****   * @file    stm32f0xx_ll_bus.h
   4:Drivers/STM32F0xx_HAL_Driver/Inc/stm32f0xx_ll_bus.h ****   * @author  MCD Application Team
   5:Drivers/STM32F0xx_HAL_Driver/Inc/stm32f0xx_ll_bus.h ****   * @brief   Header file of BUS LL module.
   6:Drivers/STM32F0xx_HAL_Driver/Inc/stm32f0xx_ll_bus.h **** 
   7:Drivers/STM32F0xx_HAL_Driver/Inc/stm32f0xx_ll_bus.h ****   @verbatim                
   8:Drivers/STM32F0xx_HAL_Driver/Inc/stm32f0xx_ll_bus.h ****                       ##### RCC Limitations #####
   9:Drivers/STM32F0xx_HAL_Driver/Inc/stm32f0xx_ll_bus.h ****   ==============================================================================
  10:Drivers/STM32F0xx_HAL_Driver/Inc/stm32f0xx_ll_bus.h ****     [..]  
  11:Drivers/STM32F0xx_HAL_Driver/Inc/stm32f0xx_ll_bus.h ****       A delay between an RCC peripheral clock enable and the effective peripheral 
  12:Drivers/STM32F0xx_HAL_Driver/Inc/stm32f0xx_ll_bus.h ****       enabling should be taken into account in order to manage the peripheral read/write 
  13:Drivers/STM32F0xx_HAL_Driver/Inc/stm32f0xx_ll_bus.h ****       from/to registers.
  14:Drivers/STM32F0xx_HAL_Driver/Inc/stm32f0xx_ll_bus.h ****       (+) This delay depends on the peripheral mapping.
  15:Drivers/STM32F0xx_HAL_Driver/Inc/stm32f0xx_ll_bus.h ****         (++) AHB & APB peripherals, 1 dummy read is necessary
  16:Drivers/STM32F0xx_HAL_Driver/Inc/stm32f0xx_ll_bus.h **** 
  17:Drivers/STM32F0xx_HAL_Driver/Inc/stm32f0xx_ll_bus.h ****     [..]  
  18:Drivers/STM32F0xx_HAL_Driver/Inc/stm32f0xx_ll_bus.h ****       Workarounds:
  19:Drivers/STM32F0xx_HAL_Driver/Inc/stm32f0xx_ll_bus.h ****       (#) For AHB & APB peripherals, a dummy read to the peripheral register has been
  20:Drivers/STM32F0xx_HAL_Driver/Inc/stm32f0xx_ll_bus.h ****           inserted in each LL_{BUS}_GRP{x}_EnableClock() function.
  21:Drivers/STM32F0xx_HAL_Driver/Inc/stm32f0xx_ll_bus.h **** 
  22:Drivers/STM32F0xx_HAL_Driver/Inc/stm32f0xx_ll_bus.h ****   @endverbatim
  23:Drivers/STM32F0xx_HAL_Driver/Inc/stm32f0xx_ll_bus.h ****   ******************************************************************************
  24:Drivers/STM32F0xx_HAL_Driver/Inc/stm32f0xx_ll_bus.h ****   * @attention
  25:Drivers/STM32F0xx_HAL_Driver/Inc/stm32f0xx_ll_bus.h ****   *
  26:Drivers/STM32F0xx_HAL_Driver/Inc/stm32f0xx_ll_bus.h ****   * Copyright (c) 2016 STMicroelectronics.
  27:Drivers/STM32F0xx_HAL_Driver/Inc/stm32f0xx_ll_bus.h ****   * All rights reserved.
  28:Drivers/STM32F0xx_HAL_Driver/Inc/stm32f0xx_ll_bus.h ****   *
  29:Drivers/STM32F0xx_HAL_Driver/Inc/stm32f0xx_ll_bus.h ****   * This software is licensed under terms that can be found in the LICENSE file in
  30:Drivers/STM32F0xx_HAL_Driver/Inc/stm32f0xx_ll_bus.h ****   * the root directory of this software component.
  31:Drivers/STM32F0xx_HAL_Driver/Inc/stm32f0xx_ll_bus.h ****   * If no LICENSE file comes with this software, it is provided AS-IS.
  32:Drivers/STM32F0xx_HAL_Driver/Inc/stm32f0xx_ll_bus.h ****   ******************************************************************************
  33:Drivers/STM32F0xx_HAL_Driver/Inc/stm32f0xx_ll_bus.h ****   */
  34:Drivers/STM32F0xx_HAL_Driver/Inc/stm32f0xx_ll_bus.h **** 
  35:Drivers/STM32F0xx_HAL_Driver/Inc/stm32f0xx_ll_bus.h **** /* Define to prevent recursive inclusion -------------------------------------*/
  36:Drivers/STM32F0xx_HAL_Driver/Inc/stm32f0xx_ll_bus.h **** #ifndef __STM32F0xx_LL_BUS_H
  37:Drivers/STM32F0xx_HAL_Driver/Inc/stm32f0xx_ll_bus.h **** #define __STM32F0xx_LL_BUS_H
  38:Drivers/STM32F0xx_HAL_Driver/Inc/stm32f0xx_ll_bus.h **** 
  39:Drivers/STM32F0xx_HAL_Driver/Inc/stm32f0xx_ll_bus.h **** #ifdef __cplusplus
  40:Drivers/STM32F0xx_HAL_Driver/Inc/stm32f0xx_ll_bus.h **** extern "C" {
  41:Drivers/STM32F0xx_HAL_Driver/Inc/stm32f0xx_ll_bus.h **** #endif
  42:Drivers/STM32F0xx_HAL_Driver/Inc/stm32f0xx_ll_bus.h **** 
  43:Drivers/STM32F0xx_HAL_Driver/Inc/stm32f0xx_ll_bus.h **** /* Includes ------------------------------------------------------------------*/
  44:Drivers/STM32F0xx_HAL_Driver/Inc/stm32f0xx_ll_bus.h **** #include "stm32f0xx.h"
  45:Drivers/STM32F0xx_HAL_Driver/Inc/stm32f0xx_ll_bus.h **** 
  46:Drivers/STM32F0xx_HAL_Driver/Inc/stm32f0xx_ll_bus.h **** /** @addtogroup STM32F0xx_LL_Driver
  47:Drivers/STM32F0xx_HAL_Driver/Inc/stm32f0xx_ll_bus.h ****   * @{
  48:Drivers/STM32F0xx_HAL_Driver/Inc/stm32f0xx_ll_bus.h ****   */
  49:Drivers/STM32F0xx_HAL_Driver/Inc/stm32f0xx_ll_bus.h **** 
  50:Drivers/STM32F0xx_HAL_Driver/Inc/stm32f0xx_ll_bus.h **** #if defined(RCC)
  51:Drivers/STM32F0xx_HAL_Driver/Inc/stm32f0xx_ll_bus.h **** 
  52:Drivers/STM32F0xx_HAL_Driver/Inc/stm32f0xx_ll_bus.h **** /** @defgroup BUS_LL BUS
  53:Drivers/STM32F0xx_HAL_Driver/Inc/stm32f0xx_ll_bus.h ****   * @{
  54:Drivers/STM32F0xx_HAL_Driver/Inc/stm32f0xx_ll_bus.h ****   */
ARM GAS  /var/folders/zf/mkqpy7tx7p1_khjt1h6hykn40000gn/T//ccF4YHcI.s 			page 12


  55:Drivers/STM32F0xx_HAL_Driver/Inc/stm32f0xx_ll_bus.h **** 
  56:Drivers/STM32F0xx_HAL_Driver/Inc/stm32f0xx_ll_bus.h **** /* Private types -------------------------------------------------------------*/
  57:Drivers/STM32F0xx_HAL_Driver/Inc/stm32f0xx_ll_bus.h **** /* Private variables ---------------------------------------------------------*/
  58:Drivers/STM32F0xx_HAL_Driver/Inc/stm32f0xx_ll_bus.h **** 
  59:Drivers/STM32F0xx_HAL_Driver/Inc/stm32f0xx_ll_bus.h **** /* Private constants ---------------------------------------------------------*/
  60:Drivers/STM32F0xx_HAL_Driver/Inc/stm32f0xx_ll_bus.h **** 
  61:Drivers/STM32F0xx_HAL_Driver/Inc/stm32f0xx_ll_bus.h **** /* Private macros ------------------------------------------------------------*/
  62:Drivers/STM32F0xx_HAL_Driver/Inc/stm32f0xx_ll_bus.h **** 
  63:Drivers/STM32F0xx_HAL_Driver/Inc/stm32f0xx_ll_bus.h **** /* Exported types ------------------------------------------------------------*/
  64:Drivers/STM32F0xx_HAL_Driver/Inc/stm32f0xx_ll_bus.h **** /* Exported constants --------------------------------------------------------*/
  65:Drivers/STM32F0xx_HAL_Driver/Inc/stm32f0xx_ll_bus.h **** /** @defgroup BUS_LL_Exported_Constants BUS Exported Constants
  66:Drivers/STM32F0xx_HAL_Driver/Inc/stm32f0xx_ll_bus.h ****   * @{
  67:Drivers/STM32F0xx_HAL_Driver/Inc/stm32f0xx_ll_bus.h ****   */
  68:Drivers/STM32F0xx_HAL_Driver/Inc/stm32f0xx_ll_bus.h **** 
  69:Drivers/STM32F0xx_HAL_Driver/Inc/stm32f0xx_ll_bus.h **** /** @defgroup BUS_LL_EC_AHB1_GRP1_PERIPH  AHB1 GRP1 PERIPH
  70:Drivers/STM32F0xx_HAL_Driver/Inc/stm32f0xx_ll_bus.h ****   * @{
  71:Drivers/STM32F0xx_HAL_Driver/Inc/stm32f0xx_ll_bus.h ****   */
  72:Drivers/STM32F0xx_HAL_Driver/Inc/stm32f0xx_ll_bus.h **** #define LL_AHB1_GRP1_PERIPH_ALL            (uint32_t)0xFFFFFFFFU
  73:Drivers/STM32F0xx_HAL_Driver/Inc/stm32f0xx_ll_bus.h **** #define LL_AHB1_GRP1_PERIPH_DMA1           RCC_AHBENR_DMA1EN
  74:Drivers/STM32F0xx_HAL_Driver/Inc/stm32f0xx_ll_bus.h **** #if defined(DMA2)
  75:Drivers/STM32F0xx_HAL_Driver/Inc/stm32f0xx_ll_bus.h **** #define LL_AHB1_GRP1_PERIPH_DMA2           RCC_AHBENR_DMA2EN
  76:Drivers/STM32F0xx_HAL_Driver/Inc/stm32f0xx_ll_bus.h **** #endif /*DMA2*/
  77:Drivers/STM32F0xx_HAL_Driver/Inc/stm32f0xx_ll_bus.h **** #define LL_AHB1_GRP1_PERIPH_SRAM           RCC_AHBENR_SRAMEN
  78:Drivers/STM32F0xx_HAL_Driver/Inc/stm32f0xx_ll_bus.h **** #define LL_AHB1_GRP1_PERIPH_FLASH          RCC_AHBENR_FLITFEN
  79:Drivers/STM32F0xx_HAL_Driver/Inc/stm32f0xx_ll_bus.h **** #define LL_AHB1_GRP1_PERIPH_CRC            RCC_AHBENR_CRCEN
  80:Drivers/STM32F0xx_HAL_Driver/Inc/stm32f0xx_ll_bus.h **** #define LL_AHB1_GRP1_PERIPH_GPIOA          RCC_AHBENR_GPIOAEN
  81:Drivers/STM32F0xx_HAL_Driver/Inc/stm32f0xx_ll_bus.h **** #define LL_AHB1_GRP1_PERIPH_GPIOB          RCC_AHBENR_GPIOBEN
  82:Drivers/STM32F0xx_HAL_Driver/Inc/stm32f0xx_ll_bus.h **** #define LL_AHB1_GRP1_PERIPH_GPIOC          RCC_AHBENR_GPIOCEN
  83:Drivers/STM32F0xx_HAL_Driver/Inc/stm32f0xx_ll_bus.h **** #if defined(GPIOD)
  84:Drivers/STM32F0xx_HAL_Driver/Inc/stm32f0xx_ll_bus.h **** #define LL_AHB1_GRP1_PERIPH_GPIOD          RCC_AHBENR_GPIODEN
  85:Drivers/STM32F0xx_HAL_Driver/Inc/stm32f0xx_ll_bus.h **** #endif /*GPIOD*/
  86:Drivers/STM32F0xx_HAL_Driver/Inc/stm32f0xx_ll_bus.h **** #if defined(GPIOE)
  87:Drivers/STM32F0xx_HAL_Driver/Inc/stm32f0xx_ll_bus.h **** #define LL_AHB1_GRP1_PERIPH_GPIOE          RCC_AHBENR_GPIOEEN
  88:Drivers/STM32F0xx_HAL_Driver/Inc/stm32f0xx_ll_bus.h **** #endif /*GPIOE*/
  89:Drivers/STM32F0xx_HAL_Driver/Inc/stm32f0xx_ll_bus.h **** #define LL_AHB1_GRP1_PERIPH_GPIOF          RCC_AHBENR_GPIOFEN
  90:Drivers/STM32F0xx_HAL_Driver/Inc/stm32f0xx_ll_bus.h **** #if defined(TSC)
  91:Drivers/STM32F0xx_HAL_Driver/Inc/stm32f0xx_ll_bus.h **** #define LL_AHB1_GRP1_PERIPH_TSC            RCC_AHBENR_TSCEN
  92:Drivers/STM32F0xx_HAL_Driver/Inc/stm32f0xx_ll_bus.h **** #endif /*TSC*/
  93:Drivers/STM32F0xx_HAL_Driver/Inc/stm32f0xx_ll_bus.h **** /**
  94:Drivers/STM32F0xx_HAL_Driver/Inc/stm32f0xx_ll_bus.h ****   * @}
  95:Drivers/STM32F0xx_HAL_Driver/Inc/stm32f0xx_ll_bus.h ****   */
  96:Drivers/STM32F0xx_HAL_Driver/Inc/stm32f0xx_ll_bus.h **** 
  97:Drivers/STM32F0xx_HAL_Driver/Inc/stm32f0xx_ll_bus.h **** /** @defgroup BUS_LL_EC_APB1_GRP1_PERIPH  APB1 GRP1 PERIPH
  98:Drivers/STM32F0xx_HAL_Driver/Inc/stm32f0xx_ll_bus.h ****   * @{
  99:Drivers/STM32F0xx_HAL_Driver/Inc/stm32f0xx_ll_bus.h ****   */
 100:Drivers/STM32F0xx_HAL_Driver/Inc/stm32f0xx_ll_bus.h **** #define LL_APB1_GRP1_PERIPH_ALL            (uint32_t)0xFFFFFFFFU
 101:Drivers/STM32F0xx_HAL_Driver/Inc/stm32f0xx_ll_bus.h **** #if defined(TIM2)
 102:Drivers/STM32F0xx_HAL_Driver/Inc/stm32f0xx_ll_bus.h **** #define LL_APB1_GRP1_PERIPH_TIM2           RCC_APB1ENR_TIM2EN
 103:Drivers/STM32F0xx_HAL_Driver/Inc/stm32f0xx_ll_bus.h **** #endif /*TIM2*/
 104:Drivers/STM32F0xx_HAL_Driver/Inc/stm32f0xx_ll_bus.h **** #define LL_APB1_GRP1_PERIPH_TIM3           RCC_APB1ENR_TIM3EN
 105:Drivers/STM32F0xx_HAL_Driver/Inc/stm32f0xx_ll_bus.h **** #if defined(TIM6)
 106:Drivers/STM32F0xx_HAL_Driver/Inc/stm32f0xx_ll_bus.h **** #define LL_APB1_GRP1_PERIPH_TIM6           RCC_APB1ENR_TIM6EN
 107:Drivers/STM32F0xx_HAL_Driver/Inc/stm32f0xx_ll_bus.h **** #endif /*TIM6*/
 108:Drivers/STM32F0xx_HAL_Driver/Inc/stm32f0xx_ll_bus.h **** #if defined(TIM7)
 109:Drivers/STM32F0xx_HAL_Driver/Inc/stm32f0xx_ll_bus.h **** #define LL_APB1_GRP1_PERIPH_TIM7           RCC_APB1ENR_TIM7EN
 110:Drivers/STM32F0xx_HAL_Driver/Inc/stm32f0xx_ll_bus.h **** #endif /*TIM7*/
 111:Drivers/STM32F0xx_HAL_Driver/Inc/stm32f0xx_ll_bus.h **** #define LL_APB1_GRP1_PERIPH_TIM14          RCC_APB1ENR_TIM14EN
ARM GAS  /var/folders/zf/mkqpy7tx7p1_khjt1h6hykn40000gn/T//ccF4YHcI.s 			page 13


 112:Drivers/STM32F0xx_HAL_Driver/Inc/stm32f0xx_ll_bus.h **** #define LL_APB1_GRP1_PERIPH_WWDG           RCC_APB1ENR_WWDGEN
 113:Drivers/STM32F0xx_HAL_Driver/Inc/stm32f0xx_ll_bus.h **** #if defined(SPI2)
 114:Drivers/STM32F0xx_HAL_Driver/Inc/stm32f0xx_ll_bus.h **** #define LL_APB1_GRP1_PERIPH_SPI2           RCC_APB1ENR_SPI2EN
 115:Drivers/STM32F0xx_HAL_Driver/Inc/stm32f0xx_ll_bus.h **** #endif /*SPI2*/
 116:Drivers/STM32F0xx_HAL_Driver/Inc/stm32f0xx_ll_bus.h **** #if defined(USART2)
 117:Drivers/STM32F0xx_HAL_Driver/Inc/stm32f0xx_ll_bus.h **** #define LL_APB1_GRP1_PERIPH_USART2         RCC_APB1ENR_USART2EN
 118:Drivers/STM32F0xx_HAL_Driver/Inc/stm32f0xx_ll_bus.h **** #endif /* USART2 */
 119:Drivers/STM32F0xx_HAL_Driver/Inc/stm32f0xx_ll_bus.h **** #if defined(USART3)
 120:Drivers/STM32F0xx_HAL_Driver/Inc/stm32f0xx_ll_bus.h **** #define LL_APB1_GRP1_PERIPH_USART3         RCC_APB1ENR_USART3EN
 121:Drivers/STM32F0xx_HAL_Driver/Inc/stm32f0xx_ll_bus.h **** #endif /* USART3 */
 122:Drivers/STM32F0xx_HAL_Driver/Inc/stm32f0xx_ll_bus.h **** #if defined(USART4)
 123:Drivers/STM32F0xx_HAL_Driver/Inc/stm32f0xx_ll_bus.h **** #define LL_APB1_GRP1_PERIPH_USART4         RCC_APB1ENR_USART4EN
 124:Drivers/STM32F0xx_HAL_Driver/Inc/stm32f0xx_ll_bus.h **** #endif /* USART4 */
 125:Drivers/STM32F0xx_HAL_Driver/Inc/stm32f0xx_ll_bus.h **** #if defined(USART5)
 126:Drivers/STM32F0xx_HAL_Driver/Inc/stm32f0xx_ll_bus.h **** #define LL_APB1_GRP1_PERIPH_USART5         RCC_APB1ENR_USART5EN
 127:Drivers/STM32F0xx_HAL_Driver/Inc/stm32f0xx_ll_bus.h **** #endif /* USART5 */
 128:Drivers/STM32F0xx_HAL_Driver/Inc/stm32f0xx_ll_bus.h **** #define LL_APB1_GRP1_PERIPH_I2C1           RCC_APB1ENR_I2C1EN
 129:Drivers/STM32F0xx_HAL_Driver/Inc/stm32f0xx_ll_bus.h **** #if defined(I2C2)
 130:Drivers/STM32F0xx_HAL_Driver/Inc/stm32f0xx_ll_bus.h **** #define LL_APB1_GRP1_PERIPH_I2C2           RCC_APB1ENR_I2C2EN
 131:Drivers/STM32F0xx_HAL_Driver/Inc/stm32f0xx_ll_bus.h **** #endif /*I2C2*/
 132:Drivers/STM32F0xx_HAL_Driver/Inc/stm32f0xx_ll_bus.h **** #if defined(USB)
 133:Drivers/STM32F0xx_HAL_Driver/Inc/stm32f0xx_ll_bus.h **** #define LL_APB1_GRP1_PERIPH_USB            RCC_APB1ENR_USBEN
 134:Drivers/STM32F0xx_HAL_Driver/Inc/stm32f0xx_ll_bus.h **** #endif /* USB */
 135:Drivers/STM32F0xx_HAL_Driver/Inc/stm32f0xx_ll_bus.h **** #if defined(CAN)
 136:Drivers/STM32F0xx_HAL_Driver/Inc/stm32f0xx_ll_bus.h **** #define LL_APB1_GRP1_PERIPH_CAN            RCC_APB1ENR_CANEN
 137:Drivers/STM32F0xx_HAL_Driver/Inc/stm32f0xx_ll_bus.h **** #endif /*CAN*/
 138:Drivers/STM32F0xx_HAL_Driver/Inc/stm32f0xx_ll_bus.h **** #if defined(CRS)
 139:Drivers/STM32F0xx_HAL_Driver/Inc/stm32f0xx_ll_bus.h **** #define LL_APB1_GRP1_PERIPH_CRS            RCC_APB1ENR_CRSEN
 140:Drivers/STM32F0xx_HAL_Driver/Inc/stm32f0xx_ll_bus.h **** #endif /*CRS*/
 141:Drivers/STM32F0xx_HAL_Driver/Inc/stm32f0xx_ll_bus.h **** #define LL_APB1_GRP1_PERIPH_PWR            RCC_APB1ENR_PWREN
 142:Drivers/STM32F0xx_HAL_Driver/Inc/stm32f0xx_ll_bus.h **** #if defined(DAC)
 143:Drivers/STM32F0xx_HAL_Driver/Inc/stm32f0xx_ll_bus.h **** #define LL_APB1_GRP1_PERIPH_DAC1           RCC_APB1ENR_DACEN
 144:Drivers/STM32F0xx_HAL_Driver/Inc/stm32f0xx_ll_bus.h **** #endif /*DAC*/
 145:Drivers/STM32F0xx_HAL_Driver/Inc/stm32f0xx_ll_bus.h **** #if defined(CEC)
 146:Drivers/STM32F0xx_HAL_Driver/Inc/stm32f0xx_ll_bus.h **** #define LL_APB1_GRP1_PERIPH_CEC            RCC_APB1ENR_CECEN
 147:Drivers/STM32F0xx_HAL_Driver/Inc/stm32f0xx_ll_bus.h **** #endif /*CEC*/
 148:Drivers/STM32F0xx_HAL_Driver/Inc/stm32f0xx_ll_bus.h **** /**
 149:Drivers/STM32F0xx_HAL_Driver/Inc/stm32f0xx_ll_bus.h ****   * @}
 150:Drivers/STM32F0xx_HAL_Driver/Inc/stm32f0xx_ll_bus.h ****   */
 151:Drivers/STM32F0xx_HAL_Driver/Inc/stm32f0xx_ll_bus.h **** 
 152:Drivers/STM32F0xx_HAL_Driver/Inc/stm32f0xx_ll_bus.h **** /** @defgroup BUS_LL_EC_APB1_GRP2_PERIPH  APB1 GRP2 PERIPH
 153:Drivers/STM32F0xx_HAL_Driver/Inc/stm32f0xx_ll_bus.h ****   * @{
 154:Drivers/STM32F0xx_HAL_Driver/Inc/stm32f0xx_ll_bus.h ****   */
 155:Drivers/STM32F0xx_HAL_Driver/Inc/stm32f0xx_ll_bus.h **** #define LL_APB1_GRP2_PERIPH_ALL            (uint32_t)0xFFFFFFFFU
 156:Drivers/STM32F0xx_HAL_Driver/Inc/stm32f0xx_ll_bus.h **** #define LL_APB1_GRP2_PERIPH_SYSCFG         RCC_APB2ENR_SYSCFGEN
 157:Drivers/STM32F0xx_HAL_Driver/Inc/stm32f0xx_ll_bus.h **** #define LL_APB1_GRP2_PERIPH_ADC1           RCC_APB2ENR_ADC1EN
 158:Drivers/STM32F0xx_HAL_Driver/Inc/stm32f0xx_ll_bus.h **** #if defined(USART8)
 159:Drivers/STM32F0xx_HAL_Driver/Inc/stm32f0xx_ll_bus.h **** #define LL_APB1_GRP2_PERIPH_USART8         RCC_APB2ENR_USART8EN
 160:Drivers/STM32F0xx_HAL_Driver/Inc/stm32f0xx_ll_bus.h **** #endif /*USART8*/
 161:Drivers/STM32F0xx_HAL_Driver/Inc/stm32f0xx_ll_bus.h **** #if defined(USART7)
 162:Drivers/STM32F0xx_HAL_Driver/Inc/stm32f0xx_ll_bus.h **** #define LL_APB1_GRP2_PERIPH_USART7         RCC_APB2ENR_USART7EN
 163:Drivers/STM32F0xx_HAL_Driver/Inc/stm32f0xx_ll_bus.h **** #endif /*USART7*/
 164:Drivers/STM32F0xx_HAL_Driver/Inc/stm32f0xx_ll_bus.h **** #if defined(USART6)
 165:Drivers/STM32F0xx_HAL_Driver/Inc/stm32f0xx_ll_bus.h **** #define LL_APB1_GRP2_PERIPH_USART6         RCC_APB2ENR_USART6EN
 166:Drivers/STM32F0xx_HAL_Driver/Inc/stm32f0xx_ll_bus.h **** #endif /*USART6*/
 167:Drivers/STM32F0xx_HAL_Driver/Inc/stm32f0xx_ll_bus.h **** #define LL_APB1_GRP2_PERIPH_TIM1           RCC_APB2ENR_TIM1EN
 168:Drivers/STM32F0xx_HAL_Driver/Inc/stm32f0xx_ll_bus.h **** #define LL_APB1_GRP2_PERIPH_SPI1           RCC_APB2ENR_SPI1EN
ARM GAS  /var/folders/zf/mkqpy7tx7p1_khjt1h6hykn40000gn/T//ccF4YHcI.s 			page 14


 169:Drivers/STM32F0xx_HAL_Driver/Inc/stm32f0xx_ll_bus.h **** #define LL_APB1_GRP2_PERIPH_USART1         RCC_APB2ENR_USART1EN
 170:Drivers/STM32F0xx_HAL_Driver/Inc/stm32f0xx_ll_bus.h **** #if defined(TIM15)
 171:Drivers/STM32F0xx_HAL_Driver/Inc/stm32f0xx_ll_bus.h **** #define LL_APB1_GRP2_PERIPH_TIM15          RCC_APB2ENR_TIM15EN
 172:Drivers/STM32F0xx_HAL_Driver/Inc/stm32f0xx_ll_bus.h **** #endif /*TIM15*/
 173:Drivers/STM32F0xx_HAL_Driver/Inc/stm32f0xx_ll_bus.h **** #define LL_APB1_GRP2_PERIPH_TIM16          RCC_APB2ENR_TIM16EN
 174:Drivers/STM32F0xx_HAL_Driver/Inc/stm32f0xx_ll_bus.h **** #define LL_APB1_GRP2_PERIPH_TIM17          RCC_APB2ENR_TIM17EN
 175:Drivers/STM32F0xx_HAL_Driver/Inc/stm32f0xx_ll_bus.h **** #define LL_APB1_GRP2_PERIPH_DBGMCU         RCC_APB2ENR_DBGMCUEN
 176:Drivers/STM32F0xx_HAL_Driver/Inc/stm32f0xx_ll_bus.h **** /**
 177:Drivers/STM32F0xx_HAL_Driver/Inc/stm32f0xx_ll_bus.h ****   * @}
 178:Drivers/STM32F0xx_HAL_Driver/Inc/stm32f0xx_ll_bus.h ****   */
 179:Drivers/STM32F0xx_HAL_Driver/Inc/stm32f0xx_ll_bus.h **** 
 180:Drivers/STM32F0xx_HAL_Driver/Inc/stm32f0xx_ll_bus.h **** /**
 181:Drivers/STM32F0xx_HAL_Driver/Inc/stm32f0xx_ll_bus.h ****   * @}
 182:Drivers/STM32F0xx_HAL_Driver/Inc/stm32f0xx_ll_bus.h ****   */
 183:Drivers/STM32F0xx_HAL_Driver/Inc/stm32f0xx_ll_bus.h **** 
 184:Drivers/STM32F0xx_HAL_Driver/Inc/stm32f0xx_ll_bus.h **** /* Exported macro ------------------------------------------------------------*/
 185:Drivers/STM32F0xx_HAL_Driver/Inc/stm32f0xx_ll_bus.h **** /* Exported functions --------------------------------------------------------*/
 186:Drivers/STM32F0xx_HAL_Driver/Inc/stm32f0xx_ll_bus.h **** /** @defgroup BUS_LL_Exported_Functions BUS Exported Functions
 187:Drivers/STM32F0xx_HAL_Driver/Inc/stm32f0xx_ll_bus.h ****   * @{
 188:Drivers/STM32F0xx_HAL_Driver/Inc/stm32f0xx_ll_bus.h ****   */
 189:Drivers/STM32F0xx_HAL_Driver/Inc/stm32f0xx_ll_bus.h **** 
 190:Drivers/STM32F0xx_HAL_Driver/Inc/stm32f0xx_ll_bus.h **** /** @defgroup BUS_LL_EF_AHB1 AHB1
 191:Drivers/STM32F0xx_HAL_Driver/Inc/stm32f0xx_ll_bus.h ****   * @{
 192:Drivers/STM32F0xx_HAL_Driver/Inc/stm32f0xx_ll_bus.h ****   */
 193:Drivers/STM32F0xx_HAL_Driver/Inc/stm32f0xx_ll_bus.h **** 
 194:Drivers/STM32F0xx_HAL_Driver/Inc/stm32f0xx_ll_bus.h **** /**
 195:Drivers/STM32F0xx_HAL_Driver/Inc/stm32f0xx_ll_bus.h ****   * @brief  Enable AHB1 peripherals clock.
 196:Drivers/STM32F0xx_HAL_Driver/Inc/stm32f0xx_ll_bus.h ****   * @rmtoll AHBENR       DMA1EN        LL_AHB1_GRP1_EnableClock\n
 197:Drivers/STM32F0xx_HAL_Driver/Inc/stm32f0xx_ll_bus.h ****   *         AHBENR       DMA2EN        LL_AHB1_GRP1_EnableClock\n
 198:Drivers/STM32F0xx_HAL_Driver/Inc/stm32f0xx_ll_bus.h ****   *         AHBENR       SRAMEN        LL_AHB1_GRP1_EnableClock\n
 199:Drivers/STM32F0xx_HAL_Driver/Inc/stm32f0xx_ll_bus.h ****   *         AHBENR       FLITFEN       LL_AHB1_GRP1_EnableClock\n
 200:Drivers/STM32F0xx_HAL_Driver/Inc/stm32f0xx_ll_bus.h ****   *         AHBENR       CRCEN         LL_AHB1_GRP1_EnableClock\n
 201:Drivers/STM32F0xx_HAL_Driver/Inc/stm32f0xx_ll_bus.h ****   *         AHBENR       GPIOAEN       LL_AHB1_GRP1_EnableClock\n
 202:Drivers/STM32F0xx_HAL_Driver/Inc/stm32f0xx_ll_bus.h ****   *         AHBENR       GPIOBEN       LL_AHB1_GRP1_EnableClock\n
 203:Drivers/STM32F0xx_HAL_Driver/Inc/stm32f0xx_ll_bus.h ****   *         AHBENR       GPIOCEN       LL_AHB1_GRP1_EnableClock\n
 204:Drivers/STM32F0xx_HAL_Driver/Inc/stm32f0xx_ll_bus.h ****   *         AHBENR       GPIODEN       LL_AHB1_GRP1_EnableClock\n
 205:Drivers/STM32F0xx_HAL_Driver/Inc/stm32f0xx_ll_bus.h ****   *         AHBENR       GPIOEEN       LL_AHB1_GRP1_EnableClock\n
 206:Drivers/STM32F0xx_HAL_Driver/Inc/stm32f0xx_ll_bus.h ****   *         AHBENR       GPIOFEN       LL_AHB1_GRP1_EnableClock\n
 207:Drivers/STM32F0xx_HAL_Driver/Inc/stm32f0xx_ll_bus.h ****   *         AHBENR       TSCEN         LL_AHB1_GRP1_EnableClock
 208:Drivers/STM32F0xx_HAL_Driver/Inc/stm32f0xx_ll_bus.h ****   * @param  Periphs This parameter can be a combination of the following values:
 209:Drivers/STM32F0xx_HAL_Driver/Inc/stm32f0xx_ll_bus.h ****   *         @arg @ref LL_AHB1_GRP1_PERIPH_DMA1
 210:Drivers/STM32F0xx_HAL_Driver/Inc/stm32f0xx_ll_bus.h ****   *         @arg @ref LL_AHB1_GRP1_PERIPH_DMA2 (*)
 211:Drivers/STM32F0xx_HAL_Driver/Inc/stm32f0xx_ll_bus.h ****   *         @arg @ref LL_AHB1_GRP1_PERIPH_SRAM
 212:Drivers/STM32F0xx_HAL_Driver/Inc/stm32f0xx_ll_bus.h ****   *         @arg @ref LL_AHB1_GRP1_PERIPH_FLASH
 213:Drivers/STM32F0xx_HAL_Driver/Inc/stm32f0xx_ll_bus.h ****   *         @arg @ref LL_AHB1_GRP1_PERIPH_CRC
 214:Drivers/STM32F0xx_HAL_Driver/Inc/stm32f0xx_ll_bus.h ****   *         @arg @ref LL_AHB1_GRP1_PERIPH_GPIOA
 215:Drivers/STM32F0xx_HAL_Driver/Inc/stm32f0xx_ll_bus.h ****   *         @arg @ref LL_AHB1_GRP1_PERIPH_GPIOB
 216:Drivers/STM32F0xx_HAL_Driver/Inc/stm32f0xx_ll_bus.h ****   *         @arg @ref LL_AHB1_GRP1_PERIPH_GPIOC
 217:Drivers/STM32F0xx_HAL_Driver/Inc/stm32f0xx_ll_bus.h ****   *         @arg @ref LL_AHB1_GRP1_PERIPH_GPIOD (*)
 218:Drivers/STM32F0xx_HAL_Driver/Inc/stm32f0xx_ll_bus.h ****   *         @arg @ref LL_AHB1_GRP1_PERIPH_GPIOE (*)
 219:Drivers/STM32F0xx_HAL_Driver/Inc/stm32f0xx_ll_bus.h ****   *         @arg @ref LL_AHB1_GRP1_PERIPH_GPIOF
 220:Drivers/STM32F0xx_HAL_Driver/Inc/stm32f0xx_ll_bus.h ****   *         @arg @ref LL_AHB1_GRP1_PERIPH_TSC (*)
 221:Drivers/STM32F0xx_HAL_Driver/Inc/stm32f0xx_ll_bus.h ****   *
 222:Drivers/STM32F0xx_HAL_Driver/Inc/stm32f0xx_ll_bus.h ****   *         (*) value not defined in all devices.
 223:Drivers/STM32F0xx_HAL_Driver/Inc/stm32f0xx_ll_bus.h ****   * @retval None
 224:Drivers/STM32F0xx_HAL_Driver/Inc/stm32f0xx_ll_bus.h **** */
 225:Drivers/STM32F0xx_HAL_Driver/Inc/stm32f0xx_ll_bus.h **** __STATIC_INLINE void LL_AHB1_GRP1_EnableClock(uint32_t Periphs)
ARM GAS  /var/folders/zf/mkqpy7tx7p1_khjt1h6hykn40000gn/T//ccF4YHcI.s 			page 15


  62              		.loc 2 225 22 view .LVU6
  63              	.LBB47:
 226:Drivers/STM32F0xx_HAL_Driver/Inc/stm32f0xx_ll_bus.h **** {
 227:Drivers/STM32F0xx_HAL_Driver/Inc/stm32f0xx_ll_bus.h ****   __IO uint32_t tmpreg;
  64              		.loc 2 227 3 view .LVU7
 228:Drivers/STM32F0xx_HAL_Driver/Inc/stm32f0xx_ll_bus.h ****   SET_BIT(RCC->AHBENR, Periphs);
  65              		.loc 2 228 3 view .LVU8
  66 001e 2C4B     		ldr	r3, .L2
  67 0020 5A69     		ldr	r2, [r3, #20]
  68 0022 8021     		movs	r1, #128
  69 0024 C903     		lsls	r1, r1, #15
  70 0026 0A43     		orrs	r2, r1
  71 0028 5A61     		str	r2, [r3, #20]
 229:Drivers/STM32F0xx_HAL_Driver/Inc/stm32f0xx_ll_bus.h ****   /* Delay after an RCC peripheral clock enabling */
 230:Drivers/STM32F0xx_HAL_Driver/Inc/stm32f0xx_ll_bus.h ****   tmpreg = READ_BIT(RCC->AHBENR, Periphs);
  72              		.loc 2 230 3 view .LVU9
  73              		.loc 2 230 12 is_stmt 0 view .LVU10
  74 002a 5A69     		ldr	r2, [r3, #20]
  75 002c 0A40     		ands	r2, r1
  76              		.loc 2 230 10 view .LVU11
  77 002e 0392     		str	r2, [sp, #12]
 231:Drivers/STM32F0xx_HAL_Driver/Inc/stm32f0xx_ll_bus.h ****   (void)tmpreg;
  78              		.loc 2 231 3 is_stmt 1 view .LVU12
  79 0030 039A     		ldr	r2, [sp, #12]
  80              	.LVL2:
  81              		.loc 2 231 3 is_stmt 0 view .LVU13
  82              	.LBE47:
  83              	.LBE46:
 514:Core/Src/main.c **** 	LL_AHB1_GRP1_EnableClock(LL_AHB1_GRP1_PERIPH_GPIOA);
  84              		.loc 1 514 2 is_stmt 1 view .LVU14
  85              	.LBB48:
  86              	.LBI48:
 225:Drivers/STM32F0xx_HAL_Driver/Inc/stm32f0xx_ll_bus.h **** {
  87              		.loc 2 225 22 view .LVU15
  88              	.LBB49:
 227:Drivers/STM32F0xx_HAL_Driver/Inc/stm32f0xx_ll_bus.h ****   SET_BIT(RCC->AHBENR, Periphs);
  89              		.loc 2 227 3 view .LVU16
 228:Drivers/STM32F0xx_HAL_Driver/Inc/stm32f0xx_ll_bus.h ****   /* Delay after an RCC peripheral clock enabling */
  90              		.loc 2 228 3 view .LVU17
  91 0032 5A69     		ldr	r2, [r3, #20]
  92 0034 8021     		movs	r1, #128
  93 0036 8902     		lsls	r1, r1, #10
  94 0038 0A43     		orrs	r2, r1
  95 003a 5A61     		str	r2, [r3, #20]
 230:Drivers/STM32F0xx_HAL_Driver/Inc/stm32f0xx_ll_bus.h ****   (void)tmpreg;
  96              		.loc 2 230 3 view .LVU18
 230:Drivers/STM32F0xx_HAL_Driver/Inc/stm32f0xx_ll_bus.h ****   (void)tmpreg;
  97              		.loc 2 230 12 is_stmt 0 view .LVU19
  98 003c 5A69     		ldr	r2, [r3, #20]
  99 003e 0A40     		ands	r2, r1
 230:Drivers/STM32F0xx_HAL_Driver/Inc/stm32f0xx_ll_bus.h ****   (void)tmpreg;
 100              		.loc 2 230 10 view .LVU20
 101 0040 0292     		str	r2, [sp, #8]
 102              		.loc 2 231 3 is_stmt 1 view .LVU21
 103 0042 029A     		ldr	r2, [sp, #8]
 104              	.LVL3:
 105              		.loc 2 231 3 is_stmt 0 view .LVU22
ARM GAS  /var/folders/zf/mkqpy7tx7p1_khjt1h6hykn40000gn/T//ccF4YHcI.s 			page 16


 106              	.LBE49:
 107              	.LBE48:
 515:Core/Src/main.c **** 	LL_AHB1_GRP1_EnableClock(LL_AHB1_GRP1_PERIPH_GPIOB);
 108              		.loc 1 515 2 is_stmt 1 view .LVU23
 109              	.LBB50:
 110              	.LBI50:
 225:Drivers/STM32F0xx_HAL_Driver/Inc/stm32f0xx_ll_bus.h **** {
 111              		.loc 2 225 22 view .LVU24
 112              	.LBB51:
 227:Drivers/STM32F0xx_HAL_Driver/Inc/stm32f0xx_ll_bus.h ****   SET_BIT(RCC->AHBENR, Periphs);
 113              		.loc 2 227 3 view .LVU25
 228:Drivers/STM32F0xx_HAL_Driver/Inc/stm32f0xx_ll_bus.h ****   /* Delay after an RCC peripheral clock enabling */
 114              		.loc 2 228 3 view .LVU26
 115 0044 5A69     		ldr	r2, [r3, #20]
 116 0046 8021     		movs	r1, #128
 117 0048 C902     		lsls	r1, r1, #11
 118 004a 0A43     		orrs	r2, r1
 119 004c 5A61     		str	r2, [r3, #20]
 230:Drivers/STM32F0xx_HAL_Driver/Inc/stm32f0xx_ll_bus.h ****   (void)tmpreg;
 120              		.loc 2 230 3 view .LVU27
 230:Drivers/STM32F0xx_HAL_Driver/Inc/stm32f0xx_ll_bus.h ****   (void)tmpreg;
 121              		.loc 2 230 12 is_stmt 0 view .LVU28
 122 004e 5B69     		ldr	r3, [r3, #20]
 123 0050 0B40     		ands	r3, r1
 230:Drivers/STM32F0xx_HAL_Driver/Inc/stm32f0xx_ll_bus.h ****   (void)tmpreg;
 124              		.loc 2 230 10 view .LVU29
 125 0052 0193     		str	r3, [sp, #4]
 126              		.loc 2 231 3 is_stmt 1 view .LVU30
 127 0054 019B     		ldr	r3, [sp, #4]
 128              	.LVL4:
 129              		.loc 2 231 3 is_stmt 0 view .LVU31
 130              	.LBE51:
 131              	.LBE50:
 516:Core/Src/main.c **** 
 517:Core/Src/main.c **** 	/**/
 518:Core/Src/main.c **** 	LL_GPIO_ResetOutputPin(LED_data_GPIO_Port, LED_data_Pin);
 132              		.loc 1 518 2 is_stmt 1 view .LVU32
 133              	.LBB52:
 134              	.LBI52:
 135              		.file 3 "Drivers/STM32F0xx_HAL_Driver/Inc/stm32f0xx_ll_gpio.h"
   1:Drivers/STM32F0xx_HAL_Driver/Inc/stm32f0xx_ll_gpio.h **** /**
   2:Drivers/STM32F0xx_HAL_Driver/Inc/stm32f0xx_ll_gpio.h ****   ******************************************************************************
   3:Drivers/STM32F0xx_HAL_Driver/Inc/stm32f0xx_ll_gpio.h ****   * @file    stm32f0xx_ll_gpio.h
   4:Drivers/STM32F0xx_HAL_Driver/Inc/stm32f0xx_ll_gpio.h ****   * @author  MCD Application Team
   5:Drivers/STM32F0xx_HAL_Driver/Inc/stm32f0xx_ll_gpio.h ****   * @brief   Header file of GPIO LL module.
   6:Drivers/STM32F0xx_HAL_Driver/Inc/stm32f0xx_ll_gpio.h ****   ******************************************************************************
   7:Drivers/STM32F0xx_HAL_Driver/Inc/stm32f0xx_ll_gpio.h ****   * @attention
   8:Drivers/STM32F0xx_HAL_Driver/Inc/stm32f0xx_ll_gpio.h ****   *
   9:Drivers/STM32F0xx_HAL_Driver/Inc/stm32f0xx_ll_gpio.h ****   * Copyright (c) 2016 STMicroelectronics.
  10:Drivers/STM32F0xx_HAL_Driver/Inc/stm32f0xx_ll_gpio.h ****   * All rights reserved.
  11:Drivers/STM32F0xx_HAL_Driver/Inc/stm32f0xx_ll_gpio.h ****   *
  12:Drivers/STM32F0xx_HAL_Driver/Inc/stm32f0xx_ll_gpio.h ****   * This software is licensed under terms that can be found in the LICENSE file
  13:Drivers/STM32F0xx_HAL_Driver/Inc/stm32f0xx_ll_gpio.h ****   * in the root directory of this software component.
  14:Drivers/STM32F0xx_HAL_Driver/Inc/stm32f0xx_ll_gpio.h ****   * If no LICENSE file comes with this software, it is provided AS-IS.
  15:Drivers/STM32F0xx_HAL_Driver/Inc/stm32f0xx_ll_gpio.h ****   *
  16:Drivers/STM32F0xx_HAL_Driver/Inc/stm32f0xx_ll_gpio.h ****   ******************************************************************************
  17:Drivers/STM32F0xx_HAL_Driver/Inc/stm32f0xx_ll_gpio.h ****   */
ARM GAS  /var/folders/zf/mkqpy7tx7p1_khjt1h6hykn40000gn/T//ccF4YHcI.s 			page 17


  18:Drivers/STM32F0xx_HAL_Driver/Inc/stm32f0xx_ll_gpio.h **** 
  19:Drivers/STM32F0xx_HAL_Driver/Inc/stm32f0xx_ll_gpio.h **** /* Define to prevent recursive inclusion -------------------------------------*/
  20:Drivers/STM32F0xx_HAL_Driver/Inc/stm32f0xx_ll_gpio.h **** #ifndef __STM32F0xx_LL_GPIO_H
  21:Drivers/STM32F0xx_HAL_Driver/Inc/stm32f0xx_ll_gpio.h **** #define __STM32F0xx_LL_GPIO_H
  22:Drivers/STM32F0xx_HAL_Driver/Inc/stm32f0xx_ll_gpio.h **** 
  23:Drivers/STM32F0xx_HAL_Driver/Inc/stm32f0xx_ll_gpio.h **** #ifdef __cplusplus
  24:Drivers/STM32F0xx_HAL_Driver/Inc/stm32f0xx_ll_gpio.h **** extern "C" {
  25:Drivers/STM32F0xx_HAL_Driver/Inc/stm32f0xx_ll_gpio.h **** #endif
  26:Drivers/STM32F0xx_HAL_Driver/Inc/stm32f0xx_ll_gpio.h **** 
  27:Drivers/STM32F0xx_HAL_Driver/Inc/stm32f0xx_ll_gpio.h **** /* Includes ------------------------------------------------------------------*/
  28:Drivers/STM32F0xx_HAL_Driver/Inc/stm32f0xx_ll_gpio.h **** #include "stm32f0xx.h"
  29:Drivers/STM32F0xx_HAL_Driver/Inc/stm32f0xx_ll_gpio.h **** 
  30:Drivers/STM32F0xx_HAL_Driver/Inc/stm32f0xx_ll_gpio.h **** /** @addtogroup STM32F0xx_LL_Driver
  31:Drivers/STM32F0xx_HAL_Driver/Inc/stm32f0xx_ll_gpio.h ****   * @{
  32:Drivers/STM32F0xx_HAL_Driver/Inc/stm32f0xx_ll_gpio.h ****   */
  33:Drivers/STM32F0xx_HAL_Driver/Inc/stm32f0xx_ll_gpio.h **** 
  34:Drivers/STM32F0xx_HAL_Driver/Inc/stm32f0xx_ll_gpio.h **** #if defined (GPIOA) || defined (GPIOB) || defined (GPIOC) || defined (GPIOD) || defined (GPIOE) || 
  35:Drivers/STM32F0xx_HAL_Driver/Inc/stm32f0xx_ll_gpio.h **** 
  36:Drivers/STM32F0xx_HAL_Driver/Inc/stm32f0xx_ll_gpio.h **** /** @defgroup GPIO_LL GPIO
  37:Drivers/STM32F0xx_HAL_Driver/Inc/stm32f0xx_ll_gpio.h ****   * @{
  38:Drivers/STM32F0xx_HAL_Driver/Inc/stm32f0xx_ll_gpio.h ****   */
  39:Drivers/STM32F0xx_HAL_Driver/Inc/stm32f0xx_ll_gpio.h **** 
  40:Drivers/STM32F0xx_HAL_Driver/Inc/stm32f0xx_ll_gpio.h **** /* Private types -------------------------------------------------------------*/
  41:Drivers/STM32F0xx_HAL_Driver/Inc/stm32f0xx_ll_gpio.h **** /* Private variables ---------------------------------------------------------*/
  42:Drivers/STM32F0xx_HAL_Driver/Inc/stm32f0xx_ll_gpio.h **** /* Private constants ---------------------------------------------------------*/
  43:Drivers/STM32F0xx_HAL_Driver/Inc/stm32f0xx_ll_gpio.h **** /* Private macros ------------------------------------------------------------*/
  44:Drivers/STM32F0xx_HAL_Driver/Inc/stm32f0xx_ll_gpio.h **** #if defined(USE_FULL_LL_DRIVER)
  45:Drivers/STM32F0xx_HAL_Driver/Inc/stm32f0xx_ll_gpio.h **** /** @defgroup GPIO_LL_Private_Macros GPIO Private Macros
  46:Drivers/STM32F0xx_HAL_Driver/Inc/stm32f0xx_ll_gpio.h ****   * @{
  47:Drivers/STM32F0xx_HAL_Driver/Inc/stm32f0xx_ll_gpio.h ****   */
  48:Drivers/STM32F0xx_HAL_Driver/Inc/stm32f0xx_ll_gpio.h **** 
  49:Drivers/STM32F0xx_HAL_Driver/Inc/stm32f0xx_ll_gpio.h **** /**
  50:Drivers/STM32F0xx_HAL_Driver/Inc/stm32f0xx_ll_gpio.h ****   * @}
  51:Drivers/STM32F0xx_HAL_Driver/Inc/stm32f0xx_ll_gpio.h ****   */
  52:Drivers/STM32F0xx_HAL_Driver/Inc/stm32f0xx_ll_gpio.h **** #endif /*USE_FULL_LL_DRIVER*/
  53:Drivers/STM32F0xx_HAL_Driver/Inc/stm32f0xx_ll_gpio.h **** 
  54:Drivers/STM32F0xx_HAL_Driver/Inc/stm32f0xx_ll_gpio.h **** /* Exported types ------------------------------------------------------------*/
  55:Drivers/STM32F0xx_HAL_Driver/Inc/stm32f0xx_ll_gpio.h **** #if defined(USE_FULL_LL_DRIVER)
  56:Drivers/STM32F0xx_HAL_Driver/Inc/stm32f0xx_ll_gpio.h **** /** @defgroup GPIO_LL_ES_INIT GPIO Exported Init structures
  57:Drivers/STM32F0xx_HAL_Driver/Inc/stm32f0xx_ll_gpio.h ****   * @{
  58:Drivers/STM32F0xx_HAL_Driver/Inc/stm32f0xx_ll_gpio.h ****   */
  59:Drivers/STM32F0xx_HAL_Driver/Inc/stm32f0xx_ll_gpio.h **** 
  60:Drivers/STM32F0xx_HAL_Driver/Inc/stm32f0xx_ll_gpio.h **** /**
  61:Drivers/STM32F0xx_HAL_Driver/Inc/stm32f0xx_ll_gpio.h ****   * @brief LL GPIO Init Structure definition
  62:Drivers/STM32F0xx_HAL_Driver/Inc/stm32f0xx_ll_gpio.h ****   */
  63:Drivers/STM32F0xx_HAL_Driver/Inc/stm32f0xx_ll_gpio.h **** typedef struct
  64:Drivers/STM32F0xx_HAL_Driver/Inc/stm32f0xx_ll_gpio.h **** {
  65:Drivers/STM32F0xx_HAL_Driver/Inc/stm32f0xx_ll_gpio.h ****   uint32_t Pin;          /*!< Specifies the GPIO pins to be configured.
  66:Drivers/STM32F0xx_HAL_Driver/Inc/stm32f0xx_ll_gpio.h ****                               This parameter can be any value of @ref GPIO_LL_EC_PIN */
  67:Drivers/STM32F0xx_HAL_Driver/Inc/stm32f0xx_ll_gpio.h **** 
  68:Drivers/STM32F0xx_HAL_Driver/Inc/stm32f0xx_ll_gpio.h ****   uint32_t Mode;         /*!< Specifies the operating mode for the selected pins.
  69:Drivers/STM32F0xx_HAL_Driver/Inc/stm32f0xx_ll_gpio.h ****                               This parameter can be a value of @ref GPIO_LL_EC_MODE.
  70:Drivers/STM32F0xx_HAL_Driver/Inc/stm32f0xx_ll_gpio.h **** 
  71:Drivers/STM32F0xx_HAL_Driver/Inc/stm32f0xx_ll_gpio.h ****                               GPIO HW configuration can be modified afterwards using unitary functi
  72:Drivers/STM32F0xx_HAL_Driver/Inc/stm32f0xx_ll_gpio.h **** 
  73:Drivers/STM32F0xx_HAL_Driver/Inc/stm32f0xx_ll_gpio.h ****   uint32_t Speed;        /*!< Specifies the speed for the selected pins.
  74:Drivers/STM32F0xx_HAL_Driver/Inc/stm32f0xx_ll_gpio.h ****                               This parameter can be a value of @ref GPIO_LL_EC_SPEED.
ARM GAS  /var/folders/zf/mkqpy7tx7p1_khjt1h6hykn40000gn/T//ccF4YHcI.s 			page 18


  75:Drivers/STM32F0xx_HAL_Driver/Inc/stm32f0xx_ll_gpio.h **** 
  76:Drivers/STM32F0xx_HAL_Driver/Inc/stm32f0xx_ll_gpio.h ****                               GPIO HW configuration can be modified afterwards using unitary functi
  77:Drivers/STM32F0xx_HAL_Driver/Inc/stm32f0xx_ll_gpio.h **** 
  78:Drivers/STM32F0xx_HAL_Driver/Inc/stm32f0xx_ll_gpio.h ****   uint32_t OutputType;   /*!< Specifies the operating output type for the selected pins.
  79:Drivers/STM32F0xx_HAL_Driver/Inc/stm32f0xx_ll_gpio.h ****                               This parameter can be a value of @ref GPIO_LL_EC_OUTPUT.
  80:Drivers/STM32F0xx_HAL_Driver/Inc/stm32f0xx_ll_gpio.h **** 
  81:Drivers/STM32F0xx_HAL_Driver/Inc/stm32f0xx_ll_gpio.h ****                               GPIO HW configuration can be modified afterwards using unitary functi
  82:Drivers/STM32F0xx_HAL_Driver/Inc/stm32f0xx_ll_gpio.h **** 
  83:Drivers/STM32F0xx_HAL_Driver/Inc/stm32f0xx_ll_gpio.h ****   uint32_t Pull;         /*!< Specifies the operating Pull-up/Pull down for the selected pins.
  84:Drivers/STM32F0xx_HAL_Driver/Inc/stm32f0xx_ll_gpio.h ****                               This parameter can be a value of @ref GPIO_LL_EC_PULL.
  85:Drivers/STM32F0xx_HAL_Driver/Inc/stm32f0xx_ll_gpio.h **** 
  86:Drivers/STM32F0xx_HAL_Driver/Inc/stm32f0xx_ll_gpio.h ****                               GPIO HW configuration can be modified afterwards using unitary functi
  87:Drivers/STM32F0xx_HAL_Driver/Inc/stm32f0xx_ll_gpio.h **** 
  88:Drivers/STM32F0xx_HAL_Driver/Inc/stm32f0xx_ll_gpio.h ****   uint32_t Alternate;    /*!< Specifies the Peripheral to be connected to the selected pins.
  89:Drivers/STM32F0xx_HAL_Driver/Inc/stm32f0xx_ll_gpio.h ****                               This parameter can be a value of @ref GPIO_LL_EC_AF.
  90:Drivers/STM32F0xx_HAL_Driver/Inc/stm32f0xx_ll_gpio.h **** 
  91:Drivers/STM32F0xx_HAL_Driver/Inc/stm32f0xx_ll_gpio.h ****                               GPIO HW configuration can be modified afterwards using unitary functi
  92:Drivers/STM32F0xx_HAL_Driver/Inc/stm32f0xx_ll_gpio.h **** } LL_GPIO_InitTypeDef;
  93:Drivers/STM32F0xx_HAL_Driver/Inc/stm32f0xx_ll_gpio.h **** 
  94:Drivers/STM32F0xx_HAL_Driver/Inc/stm32f0xx_ll_gpio.h **** /**
  95:Drivers/STM32F0xx_HAL_Driver/Inc/stm32f0xx_ll_gpio.h ****   * @}
  96:Drivers/STM32F0xx_HAL_Driver/Inc/stm32f0xx_ll_gpio.h ****   */
  97:Drivers/STM32F0xx_HAL_Driver/Inc/stm32f0xx_ll_gpio.h **** #endif /* USE_FULL_LL_DRIVER */
  98:Drivers/STM32F0xx_HAL_Driver/Inc/stm32f0xx_ll_gpio.h **** 
  99:Drivers/STM32F0xx_HAL_Driver/Inc/stm32f0xx_ll_gpio.h **** /* Exported constants --------------------------------------------------------*/
 100:Drivers/STM32F0xx_HAL_Driver/Inc/stm32f0xx_ll_gpio.h **** /** @defgroup GPIO_LL_Exported_Constants GPIO Exported Constants
 101:Drivers/STM32F0xx_HAL_Driver/Inc/stm32f0xx_ll_gpio.h ****   * @{
 102:Drivers/STM32F0xx_HAL_Driver/Inc/stm32f0xx_ll_gpio.h ****   */
 103:Drivers/STM32F0xx_HAL_Driver/Inc/stm32f0xx_ll_gpio.h **** 
 104:Drivers/STM32F0xx_HAL_Driver/Inc/stm32f0xx_ll_gpio.h **** /** @defgroup GPIO_LL_EC_PIN PIN
 105:Drivers/STM32F0xx_HAL_Driver/Inc/stm32f0xx_ll_gpio.h ****   * @{
 106:Drivers/STM32F0xx_HAL_Driver/Inc/stm32f0xx_ll_gpio.h ****   */
 107:Drivers/STM32F0xx_HAL_Driver/Inc/stm32f0xx_ll_gpio.h **** #define LL_GPIO_PIN_0                      GPIO_BSRR_BS_0 /*!< Select pin 0 */
 108:Drivers/STM32F0xx_HAL_Driver/Inc/stm32f0xx_ll_gpio.h **** #define LL_GPIO_PIN_1                      GPIO_BSRR_BS_1 /*!< Select pin 1 */
 109:Drivers/STM32F0xx_HAL_Driver/Inc/stm32f0xx_ll_gpio.h **** #define LL_GPIO_PIN_2                      GPIO_BSRR_BS_2 /*!< Select pin 2 */
 110:Drivers/STM32F0xx_HAL_Driver/Inc/stm32f0xx_ll_gpio.h **** #define LL_GPIO_PIN_3                      GPIO_BSRR_BS_3 /*!< Select pin 3 */
 111:Drivers/STM32F0xx_HAL_Driver/Inc/stm32f0xx_ll_gpio.h **** #define LL_GPIO_PIN_4                      GPIO_BSRR_BS_4 /*!< Select pin 4 */
 112:Drivers/STM32F0xx_HAL_Driver/Inc/stm32f0xx_ll_gpio.h **** #define LL_GPIO_PIN_5                      GPIO_BSRR_BS_5 /*!< Select pin 5 */
 113:Drivers/STM32F0xx_HAL_Driver/Inc/stm32f0xx_ll_gpio.h **** #define LL_GPIO_PIN_6                      GPIO_BSRR_BS_6 /*!< Select pin 6 */
 114:Drivers/STM32F0xx_HAL_Driver/Inc/stm32f0xx_ll_gpio.h **** #define LL_GPIO_PIN_7                      GPIO_BSRR_BS_7 /*!< Select pin 7 */
 115:Drivers/STM32F0xx_HAL_Driver/Inc/stm32f0xx_ll_gpio.h **** #define LL_GPIO_PIN_8                      GPIO_BSRR_BS_8 /*!< Select pin 8 */
 116:Drivers/STM32F0xx_HAL_Driver/Inc/stm32f0xx_ll_gpio.h **** #define LL_GPIO_PIN_9                      GPIO_BSRR_BS_9 /*!< Select pin 9 */
 117:Drivers/STM32F0xx_HAL_Driver/Inc/stm32f0xx_ll_gpio.h **** #define LL_GPIO_PIN_10                     GPIO_BSRR_BS_10 /*!< Select pin 10 */
 118:Drivers/STM32F0xx_HAL_Driver/Inc/stm32f0xx_ll_gpio.h **** #define LL_GPIO_PIN_11                     GPIO_BSRR_BS_11 /*!< Select pin 11 */
 119:Drivers/STM32F0xx_HAL_Driver/Inc/stm32f0xx_ll_gpio.h **** #define LL_GPIO_PIN_12                     GPIO_BSRR_BS_12 /*!< Select pin 12 */
 120:Drivers/STM32F0xx_HAL_Driver/Inc/stm32f0xx_ll_gpio.h **** #define LL_GPIO_PIN_13                     GPIO_BSRR_BS_13 /*!< Select pin 13 */
 121:Drivers/STM32F0xx_HAL_Driver/Inc/stm32f0xx_ll_gpio.h **** #define LL_GPIO_PIN_14                     GPIO_BSRR_BS_14 /*!< Select pin 14 */
 122:Drivers/STM32F0xx_HAL_Driver/Inc/stm32f0xx_ll_gpio.h **** #define LL_GPIO_PIN_15                     GPIO_BSRR_BS_15 /*!< Select pin 15 */
 123:Drivers/STM32F0xx_HAL_Driver/Inc/stm32f0xx_ll_gpio.h **** #define LL_GPIO_PIN_ALL                    (GPIO_BSRR_BS_0 | GPIO_BSRR_BS_1  | GPIO_BSRR_BS_2  | \
 124:Drivers/STM32F0xx_HAL_Driver/Inc/stm32f0xx_ll_gpio.h ****                                            GPIO_BSRR_BS_3  | GPIO_BSRR_BS_4  | GPIO_BSRR_BS_5  | \
 125:Drivers/STM32F0xx_HAL_Driver/Inc/stm32f0xx_ll_gpio.h ****                                            GPIO_BSRR_BS_6  | GPIO_BSRR_BS_7  | GPIO_BSRR_BS_8  | \
 126:Drivers/STM32F0xx_HAL_Driver/Inc/stm32f0xx_ll_gpio.h ****                                            GPIO_BSRR_BS_9  | GPIO_BSRR_BS_10 | GPIO_BSRR_BS_11 | \
 127:Drivers/STM32F0xx_HAL_Driver/Inc/stm32f0xx_ll_gpio.h ****                                            GPIO_BSRR_BS_12 | GPIO_BSRR_BS_13 | GPIO_BSRR_BS_14 | \
 128:Drivers/STM32F0xx_HAL_Driver/Inc/stm32f0xx_ll_gpio.h ****                                            GPIO_BSRR_BS_15) /*!< Select all pins */
 129:Drivers/STM32F0xx_HAL_Driver/Inc/stm32f0xx_ll_gpio.h **** /**
 130:Drivers/STM32F0xx_HAL_Driver/Inc/stm32f0xx_ll_gpio.h ****   * @}
 131:Drivers/STM32F0xx_HAL_Driver/Inc/stm32f0xx_ll_gpio.h ****   */
ARM GAS  /var/folders/zf/mkqpy7tx7p1_khjt1h6hykn40000gn/T//ccF4YHcI.s 			page 19


 132:Drivers/STM32F0xx_HAL_Driver/Inc/stm32f0xx_ll_gpio.h **** 
 133:Drivers/STM32F0xx_HAL_Driver/Inc/stm32f0xx_ll_gpio.h **** /** @defgroup GPIO_LL_EC_MODE Mode
 134:Drivers/STM32F0xx_HAL_Driver/Inc/stm32f0xx_ll_gpio.h ****   * @{
 135:Drivers/STM32F0xx_HAL_Driver/Inc/stm32f0xx_ll_gpio.h ****   */
 136:Drivers/STM32F0xx_HAL_Driver/Inc/stm32f0xx_ll_gpio.h **** #define LL_GPIO_MODE_INPUT                 (0x00000000U) /*!< Select input mode */
 137:Drivers/STM32F0xx_HAL_Driver/Inc/stm32f0xx_ll_gpio.h **** #define LL_GPIO_MODE_OUTPUT                GPIO_MODER_MODER0_0  /*!< Select output mode */
 138:Drivers/STM32F0xx_HAL_Driver/Inc/stm32f0xx_ll_gpio.h **** #define LL_GPIO_MODE_ALTERNATE             GPIO_MODER_MODER0_1  /*!< Select alternate function mode
 139:Drivers/STM32F0xx_HAL_Driver/Inc/stm32f0xx_ll_gpio.h **** #define LL_GPIO_MODE_ANALOG                GPIO_MODER_MODER0    /*!< Select analog mode */
 140:Drivers/STM32F0xx_HAL_Driver/Inc/stm32f0xx_ll_gpio.h **** /**
 141:Drivers/STM32F0xx_HAL_Driver/Inc/stm32f0xx_ll_gpio.h ****   * @}
 142:Drivers/STM32F0xx_HAL_Driver/Inc/stm32f0xx_ll_gpio.h ****   */
 143:Drivers/STM32F0xx_HAL_Driver/Inc/stm32f0xx_ll_gpio.h **** 
 144:Drivers/STM32F0xx_HAL_Driver/Inc/stm32f0xx_ll_gpio.h **** /** @defgroup GPIO_LL_EC_OUTPUT Output Type
 145:Drivers/STM32F0xx_HAL_Driver/Inc/stm32f0xx_ll_gpio.h ****   * @{
 146:Drivers/STM32F0xx_HAL_Driver/Inc/stm32f0xx_ll_gpio.h ****   */
 147:Drivers/STM32F0xx_HAL_Driver/Inc/stm32f0xx_ll_gpio.h **** #define LL_GPIO_OUTPUT_PUSHPULL            (0x00000000U) /*!< Select push-pull as output type */
 148:Drivers/STM32F0xx_HAL_Driver/Inc/stm32f0xx_ll_gpio.h **** #define LL_GPIO_OUTPUT_OPENDRAIN           GPIO_OTYPER_OT_0 /*!< Select open-drain as output type *
 149:Drivers/STM32F0xx_HAL_Driver/Inc/stm32f0xx_ll_gpio.h **** /**
 150:Drivers/STM32F0xx_HAL_Driver/Inc/stm32f0xx_ll_gpio.h ****   * @}
 151:Drivers/STM32F0xx_HAL_Driver/Inc/stm32f0xx_ll_gpio.h ****   */
 152:Drivers/STM32F0xx_HAL_Driver/Inc/stm32f0xx_ll_gpio.h **** 
 153:Drivers/STM32F0xx_HAL_Driver/Inc/stm32f0xx_ll_gpio.h **** /** @defgroup GPIO_LL_EC_SPEED Output Speed
 154:Drivers/STM32F0xx_HAL_Driver/Inc/stm32f0xx_ll_gpio.h ****   * @{
 155:Drivers/STM32F0xx_HAL_Driver/Inc/stm32f0xx_ll_gpio.h ****   */
 156:Drivers/STM32F0xx_HAL_Driver/Inc/stm32f0xx_ll_gpio.h **** #define LL_GPIO_SPEED_FREQ_LOW             (0x00000000U) /*!< Select I/O low output speed    */
 157:Drivers/STM32F0xx_HAL_Driver/Inc/stm32f0xx_ll_gpio.h **** #define LL_GPIO_SPEED_FREQ_MEDIUM          GPIO_OSPEEDR_OSPEEDR0_0 /*!< Select I/O medium output sp
 158:Drivers/STM32F0xx_HAL_Driver/Inc/stm32f0xx_ll_gpio.h **** #define LL_GPIO_SPEED_FREQ_HIGH            GPIO_OSPEEDR_OSPEEDR0   /*!< Select I/O high output spee
 159:Drivers/STM32F0xx_HAL_Driver/Inc/stm32f0xx_ll_gpio.h **** /**
 160:Drivers/STM32F0xx_HAL_Driver/Inc/stm32f0xx_ll_gpio.h ****   * @}
 161:Drivers/STM32F0xx_HAL_Driver/Inc/stm32f0xx_ll_gpio.h ****   */
 162:Drivers/STM32F0xx_HAL_Driver/Inc/stm32f0xx_ll_gpio.h **** #define LL_GPIO_SPEED_LOW                  LL_GPIO_SPEED_FREQ_LOW
 163:Drivers/STM32F0xx_HAL_Driver/Inc/stm32f0xx_ll_gpio.h **** #define LL_GPIO_SPEED_MEDIUM               LL_GPIO_SPEED_FREQ_MEDIUM
 164:Drivers/STM32F0xx_HAL_Driver/Inc/stm32f0xx_ll_gpio.h **** #define LL_GPIO_SPEED_HIGH                 LL_GPIO_SPEED_FREQ_HIGH
 165:Drivers/STM32F0xx_HAL_Driver/Inc/stm32f0xx_ll_gpio.h **** 
 166:Drivers/STM32F0xx_HAL_Driver/Inc/stm32f0xx_ll_gpio.h **** /** @defgroup GPIO_LL_EC_PULL Pull Up Pull Down
 167:Drivers/STM32F0xx_HAL_Driver/Inc/stm32f0xx_ll_gpio.h ****   * @{
 168:Drivers/STM32F0xx_HAL_Driver/Inc/stm32f0xx_ll_gpio.h ****   */
 169:Drivers/STM32F0xx_HAL_Driver/Inc/stm32f0xx_ll_gpio.h **** #define LL_GPIO_PULL_NO                    (0x00000000U) /*!< Select I/O no pull */
 170:Drivers/STM32F0xx_HAL_Driver/Inc/stm32f0xx_ll_gpio.h **** #define LL_GPIO_PULL_UP                    GPIO_PUPDR_PUPDR0_0 /*!< Select I/O pull up */
 171:Drivers/STM32F0xx_HAL_Driver/Inc/stm32f0xx_ll_gpio.h **** #define LL_GPIO_PULL_DOWN                  GPIO_PUPDR_PUPDR0_1 /*!< Select I/O pull down */
 172:Drivers/STM32F0xx_HAL_Driver/Inc/stm32f0xx_ll_gpio.h **** /**
 173:Drivers/STM32F0xx_HAL_Driver/Inc/stm32f0xx_ll_gpio.h ****   * @}
 174:Drivers/STM32F0xx_HAL_Driver/Inc/stm32f0xx_ll_gpio.h ****   */
 175:Drivers/STM32F0xx_HAL_Driver/Inc/stm32f0xx_ll_gpio.h **** 
 176:Drivers/STM32F0xx_HAL_Driver/Inc/stm32f0xx_ll_gpio.h **** /** @defgroup GPIO_LL_EC_AF Alternate Function
 177:Drivers/STM32F0xx_HAL_Driver/Inc/stm32f0xx_ll_gpio.h ****   * @{
 178:Drivers/STM32F0xx_HAL_Driver/Inc/stm32f0xx_ll_gpio.h ****   */
 179:Drivers/STM32F0xx_HAL_Driver/Inc/stm32f0xx_ll_gpio.h **** #define LL_GPIO_AF_0                       (0x0000000U) /*!< Select alternate function 0 */
 180:Drivers/STM32F0xx_HAL_Driver/Inc/stm32f0xx_ll_gpio.h **** #define LL_GPIO_AF_1                       (0x0000001U) /*!< Select alternate function 1 */
 181:Drivers/STM32F0xx_HAL_Driver/Inc/stm32f0xx_ll_gpio.h **** #define LL_GPIO_AF_2                       (0x0000002U) /*!< Select alternate function 2 */
 182:Drivers/STM32F0xx_HAL_Driver/Inc/stm32f0xx_ll_gpio.h **** #define LL_GPIO_AF_3                       (0x0000003U) /*!< Select alternate function 3 */
 183:Drivers/STM32F0xx_HAL_Driver/Inc/stm32f0xx_ll_gpio.h **** #define LL_GPIO_AF_4                       (0x0000004U) /*!< Select alternate function 4 */
 184:Drivers/STM32F0xx_HAL_Driver/Inc/stm32f0xx_ll_gpio.h **** #define LL_GPIO_AF_5                       (0x0000005U) /*!< Select alternate function 5 */
 185:Drivers/STM32F0xx_HAL_Driver/Inc/stm32f0xx_ll_gpio.h **** #define LL_GPIO_AF_6                       (0x0000006U) /*!< Select alternate function 6 */
 186:Drivers/STM32F0xx_HAL_Driver/Inc/stm32f0xx_ll_gpio.h **** #define LL_GPIO_AF_7                       (0x0000007U) /*!< Select alternate function 7 */
 187:Drivers/STM32F0xx_HAL_Driver/Inc/stm32f0xx_ll_gpio.h **** /**
 188:Drivers/STM32F0xx_HAL_Driver/Inc/stm32f0xx_ll_gpio.h ****   * @}
ARM GAS  /var/folders/zf/mkqpy7tx7p1_khjt1h6hykn40000gn/T//ccF4YHcI.s 			page 20


 189:Drivers/STM32F0xx_HAL_Driver/Inc/stm32f0xx_ll_gpio.h ****   */
 190:Drivers/STM32F0xx_HAL_Driver/Inc/stm32f0xx_ll_gpio.h **** 
 191:Drivers/STM32F0xx_HAL_Driver/Inc/stm32f0xx_ll_gpio.h **** /**
 192:Drivers/STM32F0xx_HAL_Driver/Inc/stm32f0xx_ll_gpio.h ****   * @}
 193:Drivers/STM32F0xx_HAL_Driver/Inc/stm32f0xx_ll_gpio.h ****   */
 194:Drivers/STM32F0xx_HAL_Driver/Inc/stm32f0xx_ll_gpio.h **** 
 195:Drivers/STM32F0xx_HAL_Driver/Inc/stm32f0xx_ll_gpio.h **** /* Exported macro ------------------------------------------------------------*/
 196:Drivers/STM32F0xx_HAL_Driver/Inc/stm32f0xx_ll_gpio.h **** /** @defgroup GPIO_LL_Exported_Macros GPIO Exported Macros
 197:Drivers/STM32F0xx_HAL_Driver/Inc/stm32f0xx_ll_gpio.h ****   * @{
 198:Drivers/STM32F0xx_HAL_Driver/Inc/stm32f0xx_ll_gpio.h ****   */
 199:Drivers/STM32F0xx_HAL_Driver/Inc/stm32f0xx_ll_gpio.h **** 
 200:Drivers/STM32F0xx_HAL_Driver/Inc/stm32f0xx_ll_gpio.h **** /** @defgroup GPIO_LL_EM_WRITE_READ Common Write and read registers Macros
 201:Drivers/STM32F0xx_HAL_Driver/Inc/stm32f0xx_ll_gpio.h ****   * @{
 202:Drivers/STM32F0xx_HAL_Driver/Inc/stm32f0xx_ll_gpio.h ****   */
 203:Drivers/STM32F0xx_HAL_Driver/Inc/stm32f0xx_ll_gpio.h **** 
 204:Drivers/STM32F0xx_HAL_Driver/Inc/stm32f0xx_ll_gpio.h **** /**
 205:Drivers/STM32F0xx_HAL_Driver/Inc/stm32f0xx_ll_gpio.h ****   * @brief  Write a value in GPIO register
 206:Drivers/STM32F0xx_HAL_Driver/Inc/stm32f0xx_ll_gpio.h ****   * @param  __INSTANCE__ GPIO Instance
 207:Drivers/STM32F0xx_HAL_Driver/Inc/stm32f0xx_ll_gpio.h ****   * @param  __REG__ Register to be written
 208:Drivers/STM32F0xx_HAL_Driver/Inc/stm32f0xx_ll_gpio.h ****   * @param  __VALUE__ Value to be written in the register
 209:Drivers/STM32F0xx_HAL_Driver/Inc/stm32f0xx_ll_gpio.h ****   * @retval None
 210:Drivers/STM32F0xx_HAL_Driver/Inc/stm32f0xx_ll_gpio.h ****   */
 211:Drivers/STM32F0xx_HAL_Driver/Inc/stm32f0xx_ll_gpio.h **** #define LL_GPIO_WriteReg(__INSTANCE__, __REG__, __VALUE__) WRITE_REG(__INSTANCE__->__REG__, (__VALU
 212:Drivers/STM32F0xx_HAL_Driver/Inc/stm32f0xx_ll_gpio.h **** 
 213:Drivers/STM32F0xx_HAL_Driver/Inc/stm32f0xx_ll_gpio.h **** /**
 214:Drivers/STM32F0xx_HAL_Driver/Inc/stm32f0xx_ll_gpio.h ****   * @brief  Read a value in GPIO register
 215:Drivers/STM32F0xx_HAL_Driver/Inc/stm32f0xx_ll_gpio.h ****   * @param  __INSTANCE__ GPIO Instance
 216:Drivers/STM32F0xx_HAL_Driver/Inc/stm32f0xx_ll_gpio.h ****   * @param  __REG__ Register to be read
 217:Drivers/STM32F0xx_HAL_Driver/Inc/stm32f0xx_ll_gpio.h ****   * @retval Register value
 218:Drivers/STM32F0xx_HAL_Driver/Inc/stm32f0xx_ll_gpio.h ****   */
 219:Drivers/STM32F0xx_HAL_Driver/Inc/stm32f0xx_ll_gpio.h **** #define LL_GPIO_ReadReg(__INSTANCE__, __REG__) READ_REG(__INSTANCE__->__REG__)
 220:Drivers/STM32F0xx_HAL_Driver/Inc/stm32f0xx_ll_gpio.h **** /**
 221:Drivers/STM32F0xx_HAL_Driver/Inc/stm32f0xx_ll_gpio.h ****   * @}
 222:Drivers/STM32F0xx_HAL_Driver/Inc/stm32f0xx_ll_gpio.h ****   */
 223:Drivers/STM32F0xx_HAL_Driver/Inc/stm32f0xx_ll_gpio.h **** 
 224:Drivers/STM32F0xx_HAL_Driver/Inc/stm32f0xx_ll_gpio.h **** /**
 225:Drivers/STM32F0xx_HAL_Driver/Inc/stm32f0xx_ll_gpio.h ****   * @}
 226:Drivers/STM32F0xx_HAL_Driver/Inc/stm32f0xx_ll_gpio.h ****   */
 227:Drivers/STM32F0xx_HAL_Driver/Inc/stm32f0xx_ll_gpio.h **** 
 228:Drivers/STM32F0xx_HAL_Driver/Inc/stm32f0xx_ll_gpio.h **** /* Exported functions --------------------------------------------------------*/
 229:Drivers/STM32F0xx_HAL_Driver/Inc/stm32f0xx_ll_gpio.h **** /** @defgroup GPIO_LL_Exported_Functions GPIO Exported Functions
 230:Drivers/STM32F0xx_HAL_Driver/Inc/stm32f0xx_ll_gpio.h ****   * @{
 231:Drivers/STM32F0xx_HAL_Driver/Inc/stm32f0xx_ll_gpio.h ****   */
 232:Drivers/STM32F0xx_HAL_Driver/Inc/stm32f0xx_ll_gpio.h **** 
 233:Drivers/STM32F0xx_HAL_Driver/Inc/stm32f0xx_ll_gpio.h **** /** @defgroup GPIO_LL_EF_Port_Configuration Port Configuration
 234:Drivers/STM32F0xx_HAL_Driver/Inc/stm32f0xx_ll_gpio.h ****   * @{
 235:Drivers/STM32F0xx_HAL_Driver/Inc/stm32f0xx_ll_gpio.h ****   */
 236:Drivers/STM32F0xx_HAL_Driver/Inc/stm32f0xx_ll_gpio.h **** 
 237:Drivers/STM32F0xx_HAL_Driver/Inc/stm32f0xx_ll_gpio.h **** /**
 238:Drivers/STM32F0xx_HAL_Driver/Inc/stm32f0xx_ll_gpio.h ****   * @brief  Configure gpio mode for a dedicated pin on dedicated port.
 239:Drivers/STM32F0xx_HAL_Driver/Inc/stm32f0xx_ll_gpio.h ****   * @note   I/O mode can be Input mode, General purpose output, Alternate function mode or Analog.
 240:Drivers/STM32F0xx_HAL_Driver/Inc/stm32f0xx_ll_gpio.h ****   * @note   Warning: only one pin can be passed as parameter.
 241:Drivers/STM32F0xx_HAL_Driver/Inc/stm32f0xx_ll_gpio.h ****   * @rmtoll MODER        MODEy         LL_GPIO_SetPinMode
 242:Drivers/STM32F0xx_HAL_Driver/Inc/stm32f0xx_ll_gpio.h ****   * @param  GPIOx GPIO Port
 243:Drivers/STM32F0xx_HAL_Driver/Inc/stm32f0xx_ll_gpio.h ****   * @param  Pin This parameter can be one of the following values:
 244:Drivers/STM32F0xx_HAL_Driver/Inc/stm32f0xx_ll_gpio.h ****   *         @arg @ref LL_GPIO_PIN_0
 245:Drivers/STM32F0xx_HAL_Driver/Inc/stm32f0xx_ll_gpio.h ****   *         @arg @ref LL_GPIO_PIN_1
ARM GAS  /var/folders/zf/mkqpy7tx7p1_khjt1h6hykn40000gn/T//ccF4YHcI.s 			page 21


 246:Drivers/STM32F0xx_HAL_Driver/Inc/stm32f0xx_ll_gpio.h ****   *         @arg @ref LL_GPIO_PIN_2
 247:Drivers/STM32F0xx_HAL_Driver/Inc/stm32f0xx_ll_gpio.h ****   *         @arg @ref LL_GPIO_PIN_3
 248:Drivers/STM32F0xx_HAL_Driver/Inc/stm32f0xx_ll_gpio.h ****   *         @arg @ref LL_GPIO_PIN_4
 249:Drivers/STM32F0xx_HAL_Driver/Inc/stm32f0xx_ll_gpio.h ****   *         @arg @ref LL_GPIO_PIN_5
 250:Drivers/STM32F0xx_HAL_Driver/Inc/stm32f0xx_ll_gpio.h ****   *         @arg @ref LL_GPIO_PIN_6
 251:Drivers/STM32F0xx_HAL_Driver/Inc/stm32f0xx_ll_gpio.h ****   *         @arg @ref LL_GPIO_PIN_7
 252:Drivers/STM32F0xx_HAL_Driver/Inc/stm32f0xx_ll_gpio.h ****   *         @arg @ref LL_GPIO_PIN_8
 253:Drivers/STM32F0xx_HAL_Driver/Inc/stm32f0xx_ll_gpio.h ****   *         @arg @ref LL_GPIO_PIN_9
 254:Drivers/STM32F0xx_HAL_Driver/Inc/stm32f0xx_ll_gpio.h ****   *         @arg @ref LL_GPIO_PIN_10
 255:Drivers/STM32F0xx_HAL_Driver/Inc/stm32f0xx_ll_gpio.h ****   *         @arg @ref LL_GPIO_PIN_11
 256:Drivers/STM32F0xx_HAL_Driver/Inc/stm32f0xx_ll_gpio.h ****   *         @arg @ref LL_GPIO_PIN_12
 257:Drivers/STM32F0xx_HAL_Driver/Inc/stm32f0xx_ll_gpio.h ****   *         @arg @ref LL_GPIO_PIN_13
 258:Drivers/STM32F0xx_HAL_Driver/Inc/stm32f0xx_ll_gpio.h ****   *         @arg @ref LL_GPIO_PIN_14
 259:Drivers/STM32F0xx_HAL_Driver/Inc/stm32f0xx_ll_gpio.h ****   *         @arg @ref LL_GPIO_PIN_15
 260:Drivers/STM32F0xx_HAL_Driver/Inc/stm32f0xx_ll_gpio.h ****   * @param  Mode This parameter can be one of the following values:
 261:Drivers/STM32F0xx_HAL_Driver/Inc/stm32f0xx_ll_gpio.h ****   *         @arg @ref LL_GPIO_MODE_INPUT
 262:Drivers/STM32F0xx_HAL_Driver/Inc/stm32f0xx_ll_gpio.h ****   *         @arg @ref LL_GPIO_MODE_OUTPUT
 263:Drivers/STM32F0xx_HAL_Driver/Inc/stm32f0xx_ll_gpio.h ****   *         @arg @ref LL_GPIO_MODE_ALTERNATE
 264:Drivers/STM32F0xx_HAL_Driver/Inc/stm32f0xx_ll_gpio.h ****   *         @arg @ref LL_GPIO_MODE_ANALOG
 265:Drivers/STM32F0xx_HAL_Driver/Inc/stm32f0xx_ll_gpio.h ****   * @retval None
 266:Drivers/STM32F0xx_HAL_Driver/Inc/stm32f0xx_ll_gpio.h ****   */
 267:Drivers/STM32F0xx_HAL_Driver/Inc/stm32f0xx_ll_gpio.h **** __STATIC_INLINE void LL_GPIO_SetPinMode(GPIO_TypeDef *GPIOx, uint32_t Pin, uint32_t Mode)
 268:Drivers/STM32F0xx_HAL_Driver/Inc/stm32f0xx_ll_gpio.h **** {
 269:Drivers/STM32F0xx_HAL_Driver/Inc/stm32f0xx_ll_gpio.h ****   MODIFY_REG(GPIOx->MODER, ((Pin * Pin) * GPIO_MODER_MODER0), ((Pin * Pin) * Mode));
 270:Drivers/STM32F0xx_HAL_Driver/Inc/stm32f0xx_ll_gpio.h **** }
 271:Drivers/STM32F0xx_HAL_Driver/Inc/stm32f0xx_ll_gpio.h **** 
 272:Drivers/STM32F0xx_HAL_Driver/Inc/stm32f0xx_ll_gpio.h **** /**
 273:Drivers/STM32F0xx_HAL_Driver/Inc/stm32f0xx_ll_gpio.h ****   * @brief  Return gpio mode for a dedicated pin on dedicated port.
 274:Drivers/STM32F0xx_HAL_Driver/Inc/stm32f0xx_ll_gpio.h ****   * @note   I/O mode can be Input mode, General purpose output, Alternate function mode or Analog.
 275:Drivers/STM32F0xx_HAL_Driver/Inc/stm32f0xx_ll_gpio.h ****   * @note   Warning: only one pin can be passed as parameter.
 276:Drivers/STM32F0xx_HAL_Driver/Inc/stm32f0xx_ll_gpio.h ****   * @rmtoll MODER        MODEy         LL_GPIO_GetPinMode
 277:Drivers/STM32F0xx_HAL_Driver/Inc/stm32f0xx_ll_gpio.h ****   * @param  GPIOx GPIO Port
 278:Drivers/STM32F0xx_HAL_Driver/Inc/stm32f0xx_ll_gpio.h ****   * @param  Pin This parameter can be one of the following values:
 279:Drivers/STM32F0xx_HAL_Driver/Inc/stm32f0xx_ll_gpio.h ****   *         @arg @ref LL_GPIO_PIN_0
 280:Drivers/STM32F0xx_HAL_Driver/Inc/stm32f0xx_ll_gpio.h ****   *         @arg @ref LL_GPIO_PIN_1
 281:Drivers/STM32F0xx_HAL_Driver/Inc/stm32f0xx_ll_gpio.h ****   *         @arg @ref LL_GPIO_PIN_2
 282:Drivers/STM32F0xx_HAL_Driver/Inc/stm32f0xx_ll_gpio.h ****   *         @arg @ref LL_GPIO_PIN_3
 283:Drivers/STM32F0xx_HAL_Driver/Inc/stm32f0xx_ll_gpio.h ****   *         @arg @ref LL_GPIO_PIN_4
 284:Drivers/STM32F0xx_HAL_Driver/Inc/stm32f0xx_ll_gpio.h ****   *         @arg @ref LL_GPIO_PIN_5
 285:Drivers/STM32F0xx_HAL_Driver/Inc/stm32f0xx_ll_gpio.h ****   *         @arg @ref LL_GPIO_PIN_6
 286:Drivers/STM32F0xx_HAL_Driver/Inc/stm32f0xx_ll_gpio.h ****   *         @arg @ref LL_GPIO_PIN_7
 287:Drivers/STM32F0xx_HAL_Driver/Inc/stm32f0xx_ll_gpio.h ****   *         @arg @ref LL_GPIO_PIN_8
 288:Drivers/STM32F0xx_HAL_Driver/Inc/stm32f0xx_ll_gpio.h ****   *         @arg @ref LL_GPIO_PIN_9
 289:Drivers/STM32F0xx_HAL_Driver/Inc/stm32f0xx_ll_gpio.h ****   *         @arg @ref LL_GPIO_PIN_10
 290:Drivers/STM32F0xx_HAL_Driver/Inc/stm32f0xx_ll_gpio.h ****   *         @arg @ref LL_GPIO_PIN_11
 291:Drivers/STM32F0xx_HAL_Driver/Inc/stm32f0xx_ll_gpio.h ****   *         @arg @ref LL_GPIO_PIN_12
 292:Drivers/STM32F0xx_HAL_Driver/Inc/stm32f0xx_ll_gpio.h ****   *         @arg @ref LL_GPIO_PIN_13
 293:Drivers/STM32F0xx_HAL_Driver/Inc/stm32f0xx_ll_gpio.h ****   *         @arg @ref LL_GPIO_PIN_14
 294:Drivers/STM32F0xx_HAL_Driver/Inc/stm32f0xx_ll_gpio.h ****   *         @arg @ref LL_GPIO_PIN_15
 295:Drivers/STM32F0xx_HAL_Driver/Inc/stm32f0xx_ll_gpio.h ****   * @retval Returned value can be one of the following values:
 296:Drivers/STM32F0xx_HAL_Driver/Inc/stm32f0xx_ll_gpio.h ****   *         @arg @ref LL_GPIO_MODE_INPUT
 297:Drivers/STM32F0xx_HAL_Driver/Inc/stm32f0xx_ll_gpio.h ****   *         @arg @ref LL_GPIO_MODE_OUTPUT
 298:Drivers/STM32F0xx_HAL_Driver/Inc/stm32f0xx_ll_gpio.h ****   *         @arg @ref LL_GPIO_MODE_ALTERNATE
 299:Drivers/STM32F0xx_HAL_Driver/Inc/stm32f0xx_ll_gpio.h ****   *         @arg @ref LL_GPIO_MODE_ANALOG
 300:Drivers/STM32F0xx_HAL_Driver/Inc/stm32f0xx_ll_gpio.h ****   */
 301:Drivers/STM32F0xx_HAL_Driver/Inc/stm32f0xx_ll_gpio.h **** __STATIC_INLINE uint32_t LL_GPIO_GetPinMode(GPIO_TypeDef *GPIOx, uint32_t Pin)
 302:Drivers/STM32F0xx_HAL_Driver/Inc/stm32f0xx_ll_gpio.h **** {
ARM GAS  /var/folders/zf/mkqpy7tx7p1_khjt1h6hykn40000gn/T//ccF4YHcI.s 			page 22


 303:Drivers/STM32F0xx_HAL_Driver/Inc/stm32f0xx_ll_gpio.h ****   return (uint32_t)(READ_BIT(GPIOx->MODER, ((Pin * Pin) * GPIO_MODER_MODER0)) / (Pin * Pin));
 304:Drivers/STM32F0xx_HAL_Driver/Inc/stm32f0xx_ll_gpio.h **** }
 305:Drivers/STM32F0xx_HAL_Driver/Inc/stm32f0xx_ll_gpio.h **** 
 306:Drivers/STM32F0xx_HAL_Driver/Inc/stm32f0xx_ll_gpio.h **** /**
 307:Drivers/STM32F0xx_HAL_Driver/Inc/stm32f0xx_ll_gpio.h ****   * @brief  Configure gpio output type for several pins on dedicated port.
 308:Drivers/STM32F0xx_HAL_Driver/Inc/stm32f0xx_ll_gpio.h ****   * @note   Output type as to be set when gpio pin is in output or
 309:Drivers/STM32F0xx_HAL_Driver/Inc/stm32f0xx_ll_gpio.h ****   *         alternate modes. Possible type are Push-pull or Open-drain.
 310:Drivers/STM32F0xx_HAL_Driver/Inc/stm32f0xx_ll_gpio.h ****   * @rmtoll OTYPER       OTy           LL_GPIO_SetPinOutputType
 311:Drivers/STM32F0xx_HAL_Driver/Inc/stm32f0xx_ll_gpio.h ****   * @param  GPIOx GPIO Port
 312:Drivers/STM32F0xx_HAL_Driver/Inc/stm32f0xx_ll_gpio.h ****   * @param  PinMask This parameter can be a combination of the following values:
 313:Drivers/STM32F0xx_HAL_Driver/Inc/stm32f0xx_ll_gpio.h ****   *         @arg @ref LL_GPIO_PIN_0
 314:Drivers/STM32F0xx_HAL_Driver/Inc/stm32f0xx_ll_gpio.h ****   *         @arg @ref LL_GPIO_PIN_1
 315:Drivers/STM32F0xx_HAL_Driver/Inc/stm32f0xx_ll_gpio.h ****   *         @arg @ref LL_GPIO_PIN_2
 316:Drivers/STM32F0xx_HAL_Driver/Inc/stm32f0xx_ll_gpio.h ****   *         @arg @ref LL_GPIO_PIN_3
 317:Drivers/STM32F0xx_HAL_Driver/Inc/stm32f0xx_ll_gpio.h ****   *         @arg @ref LL_GPIO_PIN_4
 318:Drivers/STM32F0xx_HAL_Driver/Inc/stm32f0xx_ll_gpio.h ****   *         @arg @ref LL_GPIO_PIN_5
 319:Drivers/STM32F0xx_HAL_Driver/Inc/stm32f0xx_ll_gpio.h ****   *         @arg @ref LL_GPIO_PIN_6
 320:Drivers/STM32F0xx_HAL_Driver/Inc/stm32f0xx_ll_gpio.h ****   *         @arg @ref LL_GPIO_PIN_7
 321:Drivers/STM32F0xx_HAL_Driver/Inc/stm32f0xx_ll_gpio.h ****   *         @arg @ref LL_GPIO_PIN_8
 322:Drivers/STM32F0xx_HAL_Driver/Inc/stm32f0xx_ll_gpio.h ****   *         @arg @ref LL_GPIO_PIN_9
 323:Drivers/STM32F0xx_HAL_Driver/Inc/stm32f0xx_ll_gpio.h ****   *         @arg @ref LL_GPIO_PIN_10
 324:Drivers/STM32F0xx_HAL_Driver/Inc/stm32f0xx_ll_gpio.h ****   *         @arg @ref LL_GPIO_PIN_11
 325:Drivers/STM32F0xx_HAL_Driver/Inc/stm32f0xx_ll_gpio.h ****   *         @arg @ref LL_GPIO_PIN_12
 326:Drivers/STM32F0xx_HAL_Driver/Inc/stm32f0xx_ll_gpio.h ****   *         @arg @ref LL_GPIO_PIN_13
 327:Drivers/STM32F0xx_HAL_Driver/Inc/stm32f0xx_ll_gpio.h ****   *         @arg @ref LL_GPIO_PIN_14
 328:Drivers/STM32F0xx_HAL_Driver/Inc/stm32f0xx_ll_gpio.h ****   *         @arg @ref LL_GPIO_PIN_15
 329:Drivers/STM32F0xx_HAL_Driver/Inc/stm32f0xx_ll_gpio.h ****   *         @arg @ref LL_GPIO_PIN_ALL
 330:Drivers/STM32F0xx_HAL_Driver/Inc/stm32f0xx_ll_gpio.h ****   * @param  OutputType This parameter can be one of the following values:
 331:Drivers/STM32F0xx_HAL_Driver/Inc/stm32f0xx_ll_gpio.h ****   *         @arg @ref LL_GPIO_OUTPUT_PUSHPULL
 332:Drivers/STM32F0xx_HAL_Driver/Inc/stm32f0xx_ll_gpio.h ****   *         @arg @ref LL_GPIO_OUTPUT_OPENDRAIN
 333:Drivers/STM32F0xx_HAL_Driver/Inc/stm32f0xx_ll_gpio.h ****   * @retval None
 334:Drivers/STM32F0xx_HAL_Driver/Inc/stm32f0xx_ll_gpio.h ****   */
 335:Drivers/STM32F0xx_HAL_Driver/Inc/stm32f0xx_ll_gpio.h **** __STATIC_INLINE void LL_GPIO_SetPinOutputType(GPIO_TypeDef *GPIOx, uint32_t PinMask, uint32_t Outpu
 336:Drivers/STM32F0xx_HAL_Driver/Inc/stm32f0xx_ll_gpio.h **** {
 337:Drivers/STM32F0xx_HAL_Driver/Inc/stm32f0xx_ll_gpio.h ****   MODIFY_REG(GPIOx->OTYPER, PinMask, (PinMask * OutputType));
 338:Drivers/STM32F0xx_HAL_Driver/Inc/stm32f0xx_ll_gpio.h **** }
 339:Drivers/STM32F0xx_HAL_Driver/Inc/stm32f0xx_ll_gpio.h **** 
 340:Drivers/STM32F0xx_HAL_Driver/Inc/stm32f0xx_ll_gpio.h **** /**
 341:Drivers/STM32F0xx_HAL_Driver/Inc/stm32f0xx_ll_gpio.h ****   * @brief  Return gpio output type for several pins on dedicated port.
 342:Drivers/STM32F0xx_HAL_Driver/Inc/stm32f0xx_ll_gpio.h ****   * @note   Output type as to be set when gpio pin is in output or
 343:Drivers/STM32F0xx_HAL_Driver/Inc/stm32f0xx_ll_gpio.h ****   *         alternate modes. Possible type are Push-pull or Open-drain.
 344:Drivers/STM32F0xx_HAL_Driver/Inc/stm32f0xx_ll_gpio.h ****   * @note   Warning: only one pin can be passed as parameter.
 345:Drivers/STM32F0xx_HAL_Driver/Inc/stm32f0xx_ll_gpio.h ****   * @rmtoll OTYPER       OTy           LL_GPIO_GetPinOutputType
 346:Drivers/STM32F0xx_HAL_Driver/Inc/stm32f0xx_ll_gpio.h ****   * @param  GPIOx GPIO Port
 347:Drivers/STM32F0xx_HAL_Driver/Inc/stm32f0xx_ll_gpio.h ****   * @param  Pin This parameter can be one of the following values:
 348:Drivers/STM32F0xx_HAL_Driver/Inc/stm32f0xx_ll_gpio.h ****   *         @arg @ref LL_GPIO_PIN_0
 349:Drivers/STM32F0xx_HAL_Driver/Inc/stm32f0xx_ll_gpio.h ****   *         @arg @ref LL_GPIO_PIN_1
 350:Drivers/STM32F0xx_HAL_Driver/Inc/stm32f0xx_ll_gpio.h ****   *         @arg @ref LL_GPIO_PIN_2
 351:Drivers/STM32F0xx_HAL_Driver/Inc/stm32f0xx_ll_gpio.h ****   *         @arg @ref LL_GPIO_PIN_3
 352:Drivers/STM32F0xx_HAL_Driver/Inc/stm32f0xx_ll_gpio.h ****   *         @arg @ref LL_GPIO_PIN_4
 353:Drivers/STM32F0xx_HAL_Driver/Inc/stm32f0xx_ll_gpio.h ****   *         @arg @ref LL_GPIO_PIN_5
 354:Drivers/STM32F0xx_HAL_Driver/Inc/stm32f0xx_ll_gpio.h ****   *         @arg @ref LL_GPIO_PIN_6
 355:Drivers/STM32F0xx_HAL_Driver/Inc/stm32f0xx_ll_gpio.h ****   *         @arg @ref LL_GPIO_PIN_7
 356:Drivers/STM32F0xx_HAL_Driver/Inc/stm32f0xx_ll_gpio.h ****   *         @arg @ref LL_GPIO_PIN_8
 357:Drivers/STM32F0xx_HAL_Driver/Inc/stm32f0xx_ll_gpio.h ****   *         @arg @ref LL_GPIO_PIN_9
 358:Drivers/STM32F0xx_HAL_Driver/Inc/stm32f0xx_ll_gpio.h ****   *         @arg @ref LL_GPIO_PIN_10
 359:Drivers/STM32F0xx_HAL_Driver/Inc/stm32f0xx_ll_gpio.h ****   *         @arg @ref LL_GPIO_PIN_11
ARM GAS  /var/folders/zf/mkqpy7tx7p1_khjt1h6hykn40000gn/T//ccF4YHcI.s 			page 23


 360:Drivers/STM32F0xx_HAL_Driver/Inc/stm32f0xx_ll_gpio.h ****   *         @arg @ref LL_GPIO_PIN_12
 361:Drivers/STM32F0xx_HAL_Driver/Inc/stm32f0xx_ll_gpio.h ****   *         @arg @ref LL_GPIO_PIN_13
 362:Drivers/STM32F0xx_HAL_Driver/Inc/stm32f0xx_ll_gpio.h ****   *         @arg @ref LL_GPIO_PIN_14
 363:Drivers/STM32F0xx_HAL_Driver/Inc/stm32f0xx_ll_gpio.h ****   *         @arg @ref LL_GPIO_PIN_15
 364:Drivers/STM32F0xx_HAL_Driver/Inc/stm32f0xx_ll_gpio.h ****   *         @arg @ref LL_GPIO_PIN_ALL
 365:Drivers/STM32F0xx_HAL_Driver/Inc/stm32f0xx_ll_gpio.h ****   * @retval Returned value can be one of the following values:
 366:Drivers/STM32F0xx_HAL_Driver/Inc/stm32f0xx_ll_gpio.h ****   *         @arg @ref LL_GPIO_OUTPUT_PUSHPULL
 367:Drivers/STM32F0xx_HAL_Driver/Inc/stm32f0xx_ll_gpio.h ****   *         @arg @ref LL_GPIO_OUTPUT_OPENDRAIN
 368:Drivers/STM32F0xx_HAL_Driver/Inc/stm32f0xx_ll_gpio.h ****   */
 369:Drivers/STM32F0xx_HAL_Driver/Inc/stm32f0xx_ll_gpio.h **** __STATIC_INLINE uint32_t LL_GPIO_GetPinOutputType(GPIO_TypeDef *GPIOx, uint32_t Pin)
 370:Drivers/STM32F0xx_HAL_Driver/Inc/stm32f0xx_ll_gpio.h **** {
 371:Drivers/STM32F0xx_HAL_Driver/Inc/stm32f0xx_ll_gpio.h ****   return (uint32_t)(READ_BIT(GPIOx->OTYPER, Pin) / Pin);
 372:Drivers/STM32F0xx_HAL_Driver/Inc/stm32f0xx_ll_gpio.h **** }
 373:Drivers/STM32F0xx_HAL_Driver/Inc/stm32f0xx_ll_gpio.h **** 
 374:Drivers/STM32F0xx_HAL_Driver/Inc/stm32f0xx_ll_gpio.h **** /**
 375:Drivers/STM32F0xx_HAL_Driver/Inc/stm32f0xx_ll_gpio.h ****   * @brief  Configure gpio speed for a dedicated pin on dedicated port.
 376:Drivers/STM32F0xx_HAL_Driver/Inc/stm32f0xx_ll_gpio.h ****   * @note   I/O speed can be Low, Medium, Fast or High speed.
 377:Drivers/STM32F0xx_HAL_Driver/Inc/stm32f0xx_ll_gpio.h ****   * @note   Warning: only one pin can be passed as parameter.
 378:Drivers/STM32F0xx_HAL_Driver/Inc/stm32f0xx_ll_gpio.h ****   * @note   Refer to datasheet for frequency specifications and the power
 379:Drivers/STM32F0xx_HAL_Driver/Inc/stm32f0xx_ll_gpio.h ****   *         supply and load conditions for each speed.
 380:Drivers/STM32F0xx_HAL_Driver/Inc/stm32f0xx_ll_gpio.h ****   * @rmtoll OSPEEDR      OSPEEDy       LL_GPIO_SetPinSpeed
 381:Drivers/STM32F0xx_HAL_Driver/Inc/stm32f0xx_ll_gpio.h ****   * @param  GPIOx GPIO Port
 382:Drivers/STM32F0xx_HAL_Driver/Inc/stm32f0xx_ll_gpio.h ****   * @param  Pin This parameter can be one of the following values:
 383:Drivers/STM32F0xx_HAL_Driver/Inc/stm32f0xx_ll_gpio.h ****   *         @arg @ref LL_GPIO_PIN_0
 384:Drivers/STM32F0xx_HAL_Driver/Inc/stm32f0xx_ll_gpio.h ****   *         @arg @ref LL_GPIO_PIN_1
 385:Drivers/STM32F0xx_HAL_Driver/Inc/stm32f0xx_ll_gpio.h ****   *         @arg @ref LL_GPIO_PIN_2
 386:Drivers/STM32F0xx_HAL_Driver/Inc/stm32f0xx_ll_gpio.h ****   *         @arg @ref LL_GPIO_PIN_3
 387:Drivers/STM32F0xx_HAL_Driver/Inc/stm32f0xx_ll_gpio.h ****   *         @arg @ref LL_GPIO_PIN_4
 388:Drivers/STM32F0xx_HAL_Driver/Inc/stm32f0xx_ll_gpio.h ****   *         @arg @ref LL_GPIO_PIN_5
 389:Drivers/STM32F0xx_HAL_Driver/Inc/stm32f0xx_ll_gpio.h ****   *         @arg @ref LL_GPIO_PIN_6
 390:Drivers/STM32F0xx_HAL_Driver/Inc/stm32f0xx_ll_gpio.h ****   *         @arg @ref LL_GPIO_PIN_7
 391:Drivers/STM32F0xx_HAL_Driver/Inc/stm32f0xx_ll_gpio.h ****   *         @arg @ref LL_GPIO_PIN_8
 392:Drivers/STM32F0xx_HAL_Driver/Inc/stm32f0xx_ll_gpio.h ****   *         @arg @ref LL_GPIO_PIN_9
 393:Drivers/STM32F0xx_HAL_Driver/Inc/stm32f0xx_ll_gpio.h ****   *         @arg @ref LL_GPIO_PIN_10
 394:Drivers/STM32F0xx_HAL_Driver/Inc/stm32f0xx_ll_gpio.h ****   *         @arg @ref LL_GPIO_PIN_11
 395:Drivers/STM32F0xx_HAL_Driver/Inc/stm32f0xx_ll_gpio.h ****   *         @arg @ref LL_GPIO_PIN_12
 396:Drivers/STM32F0xx_HAL_Driver/Inc/stm32f0xx_ll_gpio.h ****   *         @arg @ref LL_GPIO_PIN_13
 397:Drivers/STM32F0xx_HAL_Driver/Inc/stm32f0xx_ll_gpio.h ****   *         @arg @ref LL_GPIO_PIN_14
 398:Drivers/STM32F0xx_HAL_Driver/Inc/stm32f0xx_ll_gpio.h ****   *         @arg @ref LL_GPIO_PIN_15
 399:Drivers/STM32F0xx_HAL_Driver/Inc/stm32f0xx_ll_gpio.h ****   * @param  Speed This parameter can be one of the following values:
 400:Drivers/STM32F0xx_HAL_Driver/Inc/stm32f0xx_ll_gpio.h ****   *         @arg @ref LL_GPIO_SPEED_FREQ_LOW
 401:Drivers/STM32F0xx_HAL_Driver/Inc/stm32f0xx_ll_gpio.h ****   *         @arg @ref LL_GPIO_SPEED_FREQ_MEDIUM
 402:Drivers/STM32F0xx_HAL_Driver/Inc/stm32f0xx_ll_gpio.h ****   *         @arg @ref LL_GPIO_SPEED_FREQ_HIGH
 403:Drivers/STM32F0xx_HAL_Driver/Inc/stm32f0xx_ll_gpio.h ****   * @retval None
 404:Drivers/STM32F0xx_HAL_Driver/Inc/stm32f0xx_ll_gpio.h ****   */
 405:Drivers/STM32F0xx_HAL_Driver/Inc/stm32f0xx_ll_gpio.h **** __STATIC_INLINE void LL_GPIO_SetPinSpeed(GPIO_TypeDef *GPIOx, uint32_t Pin, uint32_t  Speed)
 406:Drivers/STM32F0xx_HAL_Driver/Inc/stm32f0xx_ll_gpio.h **** {
 407:Drivers/STM32F0xx_HAL_Driver/Inc/stm32f0xx_ll_gpio.h ****   MODIFY_REG(GPIOx->OSPEEDR, ((Pin * Pin) * GPIO_OSPEEDR_OSPEEDR0), ((Pin * Pin) * Speed));
 408:Drivers/STM32F0xx_HAL_Driver/Inc/stm32f0xx_ll_gpio.h **** }
 409:Drivers/STM32F0xx_HAL_Driver/Inc/stm32f0xx_ll_gpio.h **** 
 410:Drivers/STM32F0xx_HAL_Driver/Inc/stm32f0xx_ll_gpio.h **** /**
 411:Drivers/STM32F0xx_HAL_Driver/Inc/stm32f0xx_ll_gpio.h ****   * @brief  Return gpio speed for a dedicated pin on dedicated port.
 412:Drivers/STM32F0xx_HAL_Driver/Inc/stm32f0xx_ll_gpio.h ****   * @note   I/O speed can be Low, Medium, Fast or High speed.
 413:Drivers/STM32F0xx_HAL_Driver/Inc/stm32f0xx_ll_gpio.h ****   * @note   Warning: only one pin can be passed as parameter.
 414:Drivers/STM32F0xx_HAL_Driver/Inc/stm32f0xx_ll_gpio.h ****   * @note   Refer to datasheet for frequency specifications and the power
 415:Drivers/STM32F0xx_HAL_Driver/Inc/stm32f0xx_ll_gpio.h ****   *         supply and load conditions for each speed.
 416:Drivers/STM32F0xx_HAL_Driver/Inc/stm32f0xx_ll_gpio.h ****   * @rmtoll OSPEEDR      OSPEEDy       LL_GPIO_GetPinSpeed
ARM GAS  /var/folders/zf/mkqpy7tx7p1_khjt1h6hykn40000gn/T//ccF4YHcI.s 			page 24


 417:Drivers/STM32F0xx_HAL_Driver/Inc/stm32f0xx_ll_gpio.h ****   * @param  GPIOx GPIO Port
 418:Drivers/STM32F0xx_HAL_Driver/Inc/stm32f0xx_ll_gpio.h ****   * @param  Pin This parameter can be one of the following values:
 419:Drivers/STM32F0xx_HAL_Driver/Inc/stm32f0xx_ll_gpio.h ****   *         @arg @ref LL_GPIO_PIN_0
 420:Drivers/STM32F0xx_HAL_Driver/Inc/stm32f0xx_ll_gpio.h ****   *         @arg @ref LL_GPIO_PIN_1
 421:Drivers/STM32F0xx_HAL_Driver/Inc/stm32f0xx_ll_gpio.h ****   *         @arg @ref LL_GPIO_PIN_2
 422:Drivers/STM32F0xx_HAL_Driver/Inc/stm32f0xx_ll_gpio.h ****   *         @arg @ref LL_GPIO_PIN_3
 423:Drivers/STM32F0xx_HAL_Driver/Inc/stm32f0xx_ll_gpio.h ****   *         @arg @ref LL_GPIO_PIN_4
 424:Drivers/STM32F0xx_HAL_Driver/Inc/stm32f0xx_ll_gpio.h ****   *         @arg @ref LL_GPIO_PIN_5
 425:Drivers/STM32F0xx_HAL_Driver/Inc/stm32f0xx_ll_gpio.h ****   *         @arg @ref LL_GPIO_PIN_6
 426:Drivers/STM32F0xx_HAL_Driver/Inc/stm32f0xx_ll_gpio.h ****   *         @arg @ref LL_GPIO_PIN_7
 427:Drivers/STM32F0xx_HAL_Driver/Inc/stm32f0xx_ll_gpio.h ****   *         @arg @ref LL_GPIO_PIN_8
 428:Drivers/STM32F0xx_HAL_Driver/Inc/stm32f0xx_ll_gpio.h ****   *         @arg @ref LL_GPIO_PIN_9
 429:Drivers/STM32F0xx_HAL_Driver/Inc/stm32f0xx_ll_gpio.h ****   *         @arg @ref LL_GPIO_PIN_10
 430:Drivers/STM32F0xx_HAL_Driver/Inc/stm32f0xx_ll_gpio.h ****   *         @arg @ref LL_GPIO_PIN_11
 431:Drivers/STM32F0xx_HAL_Driver/Inc/stm32f0xx_ll_gpio.h ****   *         @arg @ref LL_GPIO_PIN_12
 432:Drivers/STM32F0xx_HAL_Driver/Inc/stm32f0xx_ll_gpio.h ****   *         @arg @ref LL_GPIO_PIN_13
 433:Drivers/STM32F0xx_HAL_Driver/Inc/stm32f0xx_ll_gpio.h ****   *         @arg @ref LL_GPIO_PIN_14
 434:Drivers/STM32F0xx_HAL_Driver/Inc/stm32f0xx_ll_gpio.h ****   *         @arg @ref LL_GPIO_PIN_15
 435:Drivers/STM32F0xx_HAL_Driver/Inc/stm32f0xx_ll_gpio.h ****   * @retval Returned value can be one of the following values:
 436:Drivers/STM32F0xx_HAL_Driver/Inc/stm32f0xx_ll_gpio.h ****   *         @arg @ref LL_GPIO_SPEED_FREQ_LOW
 437:Drivers/STM32F0xx_HAL_Driver/Inc/stm32f0xx_ll_gpio.h ****   *         @arg @ref LL_GPIO_SPEED_FREQ_MEDIUM
 438:Drivers/STM32F0xx_HAL_Driver/Inc/stm32f0xx_ll_gpio.h ****   *         @arg @ref LL_GPIO_SPEED_FREQ_HIGH
 439:Drivers/STM32F0xx_HAL_Driver/Inc/stm32f0xx_ll_gpio.h ****   */
 440:Drivers/STM32F0xx_HAL_Driver/Inc/stm32f0xx_ll_gpio.h **** __STATIC_INLINE uint32_t LL_GPIO_GetPinSpeed(GPIO_TypeDef *GPIOx, uint32_t Pin)
 441:Drivers/STM32F0xx_HAL_Driver/Inc/stm32f0xx_ll_gpio.h **** {
 442:Drivers/STM32F0xx_HAL_Driver/Inc/stm32f0xx_ll_gpio.h ****   return (uint32_t)(READ_BIT(GPIOx->OSPEEDR, ((Pin * Pin) * GPIO_OSPEEDR_OSPEEDR0)) / (Pin * Pin));
 443:Drivers/STM32F0xx_HAL_Driver/Inc/stm32f0xx_ll_gpio.h **** }
 444:Drivers/STM32F0xx_HAL_Driver/Inc/stm32f0xx_ll_gpio.h **** 
 445:Drivers/STM32F0xx_HAL_Driver/Inc/stm32f0xx_ll_gpio.h **** /**
 446:Drivers/STM32F0xx_HAL_Driver/Inc/stm32f0xx_ll_gpio.h ****   * @brief  Configure gpio pull-up or pull-down for a dedicated pin on a dedicated port.
 447:Drivers/STM32F0xx_HAL_Driver/Inc/stm32f0xx_ll_gpio.h ****   * @note   Warning: only one pin can be passed as parameter.
 448:Drivers/STM32F0xx_HAL_Driver/Inc/stm32f0xx_ll_gpio.h ****   * @rmtoll PUPDR        PUPDy         LL_GPIO_SetPinPull
 449:Drivers/STM32F0xx_HAL_Driver/Inc/stm32f0xx_ll_gpio.h ****   * @param  GPIOx GPIO Port
 450:Drivers/STM32F0xx_HAL_Driver/Inc/stm32f0xx_ll_gpio.h ****   * @param  Pin This parameter can be one of the following values:
 451:Drivers/STM32F0xx_HAL_Driver/Inc/stm32f0xx_ll_gpio.h ****   *         @arg @ref LL_GPIO_PIN_0
 452:Drivers/STM32F0xx_HAL_Driver/Inc/stm32f0xx_ll_gpio.h ****   *         @arg @ref LL_GPIO_PIN_1
 453:Drivers/STM32F0xx_HAL_Driver/Inc/stm32f0xx_ll_gpio.h ****   *         @arg @ref LL_GPIO_PIN_2
 454:Drivers/STM32F0xx_HAL_Driver/Inc/stm32f0xx_ll_gpio.h ****   *         @arg @ref LL_GPIO_PIN_3
 455:Drivers/STM32F0xx_HAL_Driver/Inc/stm32f0xx_ll_gpio.h ****   *         @arg @ref LL_GPIO_PIN_4
 456:Drivers/STM32F0xx_HAL_Driver/Inc/stm32f0xx_ll_gpio.h ****   *         @arg @ref LL_GPIO_PIN_5
 457:Drivers/STM32F0xx_HAL_Driver/Inc/stm32f0xx_ll_gpio.h ****   *         @arg @ref LL_GPIO_PIN_6
 458:Drivers/STM32F0xx_HAL_Driver/Inc/stm32f0xx_ll_gpio.h ****   *         @arg @ref LL_GPIO_PIN_7
 459:Drivers/STM32F0xx_HAL_Driver/Inc/stm32f0xx_ll_gpio.h ****   *         @arg @ref LL_GPIO_PIN_8
 460:Drivers/STM32F0xx_HAL_Driver/Inc/stm32f0xx_ll_gpio.h ****   *         @arg @ref LL_GPIO_PIN_9
 461:Drivers/STM32F0xx_HAL_Driver/Inc/stm32f0xx_ll_gpio.h ****   *         @arg @ref LL_GPIO_PIN_10
 462:Drivers/STM32F0xx_HAL_Driver/Inc/stm32f0xx_ll_gpio.h ****   *         @arg @ref LL_GPIO_PIN_11
 463:Drivers/STM32F0xx_HAL_Driver/Inc/stm32f0xx_ll_gpio.h ****   *         @arg @ref LL_GPIO_PIN_12
 464:Drivers/STM32F0xx_HAL_Driver/Inc/stm32f0xx_ll_gpio.h ****   *         @arg @ref LL_GPIO_PIN_13
 465:Drivers/STM32F0xx_HAL_Driver/Inc/stm32f0xx_ll_gpio.h ****   *         @arg @ref LL_GPIO_PIN_14
 466:Drivers/STM32F0xx_HAL_Driver/Inc/stm32f0xx_ll_gpio.h ****   *         @arg @ref LL_GPIO_PIN_15
 467:Drivers/STM32F0xx_HAL_Driver/Inc/stm32f0xx_ll_gpio.h ****   * @param  Pull This parameter can be one of the following values:
 468:Drivers/STM32F0xx_HAL_Driver/Inc/stm32f0xx_ll_gpio.h ****   *         @arg @ref LL_GPIO_PULL_NO
 469:Drivers/STM32F0xx_HAL_Driver/Inc/stm32f0xx_ll_gpio.h ****   *         @arg @ref LL_GPIO_PULL_UP
 470:Drivers/STM32F0xx_HAL_Driver/Inc/stm32f0xx_ll_gpio.h ****   *         @arg @ref LL_GPIO_PULL_DOWN
 471:Drivers/STM32F0xx_HAL_Driver/Inc/stm32f0xx_ll_gpio.h ****   * @retval None
 472:Drivers/STM32F0xx_HAL_Driver/Inc/stm32f0xx_ll_gpio.h ****   */
 473:Drivers/STM32F0xx_HAL_Driver/Inc/stm32f0xx_ll_gpio.h **** __STATIC_INLINE void LL_GPIO_SetPinPull(GPIO_TypeDef *GPIOx, uint32_t Pin, uint32_t Pull)
ARM GAS  /var/folders/zf/mkqpy7tx7p1_khjt1h6hykn40000gn/T//ccF4YHcI.s 			page 25


 474:Drivers/STM32F0xx_HAL_Driver/Inc/stm32f0xx_ll_gpio.h **** {
 475:Drivers/STM32F0xx_HAL_Driver/Inc/stm32f0xx_ll_gpio.h ****   MODIFY_REG(GPIOx->PUPDR, ((Pin * Pin) * GPIO_PUPDR_PUPDR0), ((Pin * Pin) * Pull));
 476:Drivers/STM32F0xx_HAL_Driver/Inc/stm32f0xx_ll_gpio.h **** }
 477:Drivers/STM32F0xx_HAL_Driver/Inc/stm32f0xx_ll_gpio.h **** 
 478:Drivers/STM32F0xx_HAL_Driver/Inc/stm32f0xx_ll_gpio.h **** /**
 479:Drivers/STM32F0xx_HAL_Driver/Inc/stm32f0xx_ll_gpio.h ****   * @brief  Return gpio pull-up or pull-down for a dedicated pin on a dedicated port
 480:Drivers/STM32F0xx_HAL_Driver/Inc/stm32f0xx_ll_gpio.h ****   * @note   Warning: only one pin can be passed as parameter.
 481:Drivers/STM32F0xx_HAL_Driver/Inc/stm32f0xx_ll_gpio.h ****   * @rmtoll PUPDR        PUPDy         LL_GPIO_GetPinPull
 482:Drivers/STM32F0xx_HAL_Driver/Inc/stm32f0xx_ll_gpio.h ****   * @param  GPIOx GPIO Port
 483:Drivers/STM32F0xx_HAL_Driver/Inc/stm32f0xx_ll_gpio.h ****   * @param  Pin This parameter can be one of the following values:
 484:Drivers/STM32F0xx_HAL_Driver/Inc/stm32f0xx_ll_gpio.h ****   *         @arg @ref LL_GPIO_PIN_0
 485:Drivers/STM32F0xx_HAL_Driver/Inc/stm32f0xx_ll_gpio.h ****   *         @arg @ref LL_GPIO_PIN_1
 486:Drivers/STM32F0xx_HAL_Driver/Inc/stm32f0xx_ll_gpio.h ****   *         @arg @ref LL_GPIO_PIN_2
 487:Drivers/STM32F0xx_HAL_Driver/Inc/stm32f0xx_ll_gpio.h ****   *         @arg @ref LL_GPIO_PIN_3
 488:Drivers/STM32F0xx_HAL_Driver/Inc/stm32f0xx_ll_gpio.h ****   *         @arg @ref LL_GPIO_PIN_4
 489:Drivers/STM32F0xx_HAL_Driver/Inc/stm32f0xx_ll_gpio.h ****   *         @arg @ref LL_GPIO_PIN_5
 490:Drivers/STM32F0xx_HAL_Driver/Inc/stm32f0xx_ll_gpio.h ****   *         @arg @ref LL_GPIO_PIN_6
 491:Drivers/STM32F0xx_HAL_Driver/Inc/stm32f0xx_ll_gpio.h ****   *         @arg @ref LL_GPIO_PIN_7
 492:Drivers/STM32F0xx_HAL_Driver/Inc/stm32f0xx_ll_gpio.h ****   *         @arg @ref LL_GPIO_PIN_8
 493:Drivers/STM32F0xx_HAL_Driver/Inc/stm32f0xx_ll_gpio.h ****   *         @arg @ref LL_GPIO_PIN_9
 494:Drivers/STM32F0xx_HAL_Driver/Inc/stm32f0xx_ll_gpio.h ****   *         @arg @ref LL_GPIO_PIN_10
 495:Drivers/STM32F0xx_HAL_Driver/Inc/stm32f0xx_ll_gpio.h ****   *         @arg @ref LL_GPIO_PIN_11
 496:Drivers/STM32F0xx_HAL_Driver/Inc/stm32f0xx_ll_gpio.h ****   *         @arg @ref LL_GPIO_PIN_12
 497:Drivers/STM32F0xx_HAL_Driver/Inc/stm32f0xx_ll_gpio.h ****   *         @arg @ref LL_GPIO_PIN_13
 498:Drivers/STM32F0xx_HAL_Driver/Inc/stm32f0xx_ll_gpio.h ****   *         @arg @ref LL_GPIO_PIN_14
 499:Drivers/STM32F0xx_HAL_Driver/Inc/stm32f0xx_ll_gpio.h ****   *         @arg @ref LL_GPIO_PIN_15
 500:Drivers/STM32F0xx_HAL_Driver/Inc/stm32f0xx_ll_gpio.h ****   * @retval Returned value can be one of the following values:
 501:Drivers/STM32F0xx_HAL_Driver/Inc/stm32f0xx_ll_gpio.h ****   *         @arg @ref LL_GPIO_PULL_NO
 502:Drivers/STM32F0xx_HAL_Driver/Inc/stm32f0xx_ll_gpio.h ****   *         @arg @ref LL_GPIO_PULL_UP
 503:Drivers/STM32F0xx_HAL_Driver/Inc/stm32f0xx_ll_gpio.h ****   *         @arg @ref LL_GPIO_PULL_DOWN
 504:Drivers/STM32F0xx_HAL_Driver/Inc/stm32f0xx_ll_gpio.h ****   */
 505:Drivers/STM32F0xx_HAL_Driver/Inc/stm32f0xx_ll_gpio.h **** __STATIC_INLINE uint32_t LL_GPIO_GetPinPull(GPIO_TypeDef *GPIOx, uint32_t Pin)
 506:Drivers/STM32F0xx_HAL_Driver/Inc/stm32f0xx_ll_gpio.h **** {
 507:Drivers/STM32F0xx_HAL_Driver/Inc/stm32f0xx_ll_gpio.h ****   return (uint32_t)(READ_BIT(GPIOx->PUPDR, ((Pin * Pin) * GPIO_PUPDR_PUPDR0)) / (Pin * Pin));
 508:Drivers/STM32F0xx_HAL_Driver/Inc/stm32f0xx_ll_gpio.h **** }
 509:Drivers/STM32F0xx_HAL_Driver/Inc/stm32f0xx_ll_gpio.h **** 
 510:Drivers/STM32F0xx_HAL_Driver/Inc/stm32f0xx_ll_gpio.h **** /**
 511:Drivers/STM32F0xx_HAL_Driver/Inc/stm32f0xx_ll_gpio.h ****   * @brief  Configure gpio alternate function of a dedicated pin from 0 to 7 for a dedicated port.
 512:Drivers/STM32F0xx_HAL_Driver/Inc/stm32f0xx_ll_gpio.h ****   * @note   Possible values are from AF0 to AF7 depending on target.
 513:Drivers/STM32F0xx_HAL_Driver/Inc/stm32f0xx_ll_gpio.h ****   * @note   Warning: only one pin can be passed as parameter.
 514:Drivers/STM32F0xx_HAL_Driver/Inc/stm32f0xx_ll_gpio.h ****   * @rmtoll AFRL         AFSELy        LL_GPIO_SetAFPin_0_7
 515:Drivers/STM32F0xx_HAL_Driver/Inc/stm32f0xx_ll_gpio.h ****   * @param  GPIOx GPIO Port
 516:Drivers/STM32F0xx_HAL_Driver/Inc/stm32f0xx_ll_gpio.h ****   * @param  Pin This parameter can be one of the following values:
 517:Drivers/STM32F0xx_HAL_Driver/Inc/stm32f0xx_ll_gpio.h ****   *         @arg @ref LL_GPIO_PIN_0
 518:Drivers/STM32F0xx_HAL_Driver/Inc/stm32f0xx_ll_gpio.h ****   *         @arg @ref LL_GPIO_PIN_1
 519:Drivers/STM32F0xx_HAL_Driver/Inc/stm32f0xx_ll_gpio.h ****   *         @arg @ref LL_GPIO_PIN_2
 520:Drivers/STM32F0xx_HAL_Driver/Inc/stm32f0xx_ll_gpio.h ****   *         @arg @ref LL_GPIO_PIN_3
 521:Drivers/STM32F0xx_HAL_Driver/Inc/stm32f0xx_ll_gpio.h ****   *         @arg @ref LL_GPIO_PIN_4
 522:Drivers/STM32F0xx_HAL_Driver/Inc/stm32f0xx_ll_gpio.h ****   *         @arg @ref LL_GPIO_PIN_5
 523:Drivers/STM32F0xx_HAL_Driver/Inc/stm32f0xx_ll_gpio.h ****   *         @arg @ref LL_GPIO_PIN_6
 524:Drivers/STM32F0xx_HAL_Driver/Inc/stm32f0xx_ll_gpio.h ****   *         @arg @ref LL_GPIO_PIN_7
 525:Drivers/STM32F0xx_HAL_Driver/Inc/stm32f0xx_ll_gpio.h ****   * @param  Alternate This parameter can be one of the following values:
 526:Drivers/STM32F0xx_HAL_Driver/Inc/stm32f0xx_ll_gpio.h ****   *         @arg @ref LL_GPIO_AF_0
 527:Drivers/STM32F0xx_HAL_Driver/Inc/stm32f0xx_ll_gpio.h ****   *         @arg @ref LL_GPIO_AF_1
 528:Drivers/STM32F0xx_HAL_Driver/Inc/stm32f0xx_ll_gpio.h ****   *         @arg @ref LL_GPIO_AF_2
 529:Drivers/STM32F0xx_HAL_Driver/Inc/stm32f0xx_ll_gpio.h ****   *         @arg @ref LL_GPIO_AF_3
 530:Drivers/STM32F0xx_HAL_Driver/Inc/stm32f0xx_ll_gpio.h ****   *         @arg @ref LL_GPIO_AF_4
ARM GAS  /var/folders/zf/mkqpy7tx7p1_khjt1h6hykn40000gn/T//ccF4YHcI.s 			page 26


 531:Drivers/STM32F0xx_HAL_Driver/Inc/stm32f0xx_ll_gpio.h ****   *         @arg @ref LL_GPIO_AF_5
 532:Drivers/STM32F0xx_HAL_Driver/Inc/stm32f0xx_ll_gpio.h ****   *         @arg @ref LL_GPIO_AF_6
 533:Drivers/STM32F0xx_HAL_Driver/Inc/stm32f0xx_ll_gpio.h ****   *         @arg @ref LL_GPIO_AF_7
 534:Drivers/STM32F0xx_HAL_Driver/Inc/stm32f0xx_ll_gpio.h ****   * @retval None
 535:Drivers/STM32F0xx_HAL_Driver/Inc/stm32f0xx_ll_gpio.h ****   */
 536:Drivers/STM32F0xx_HAL_Driver/Inc/stm32f0xx_ll_gpio.h **** __STATIC_INLINE void LL_GPIO_SetAFPin_0_7(GPIO_TypeDef *GPIOx, uint32_t Pin, uint32_t Alternate)
 537:Drivers/STM32F0xx_HAL_Driver/Inc/stm32f0xx_ll_gpio.h **** {
 538:Drivers/STM32F0xx_HAL_Driver/Inc/stm32f0xx_ll_gpio.h ****   MODIFY_REG(GPIOx->AFR[0], ((((Pin * Pin) * Pin) * Pin) * GPIO_AFRL_AFSEL0),
 539:Drivers/STM32F0xx_HAL_Driver/Inc/stm32f0xx_ll_gpio.h ****              ((((Pin * Pin) * Pin) * Pin) * Alternate));
 540:Drivers/STM32F0xx_HAL_Driver/Inc/stm32f0xx_ll_gpio.h **** }
 541:Drivers/STM32F0xx_HAL_Driver/Inc/stm32f0xx_ll_gpio.h **** 
 542:Drivers/STM32F0xx_HAL_Driver/Inc/stm32f0xx_ll_gpio.h **** /**
 543:Drivers/STM32F0xx_HAL_Driver/Inc/stm32f0xx_ll_gpio.h ****   * @brief  Return gpio alternate function of a dedicated pin from 0 to 7 for a dedicated port.
 544:Drivers/STM32F0xx_HAL_Driver/Inc/stm32f0xx_ll_gpio.h ****   * @rmtoll AFRL         AFSELy        LL_GPIO_GetAFPin_0_7
 545:Drivers/STM32F0xx_HAL_Driver/Inc/stm32f0xx_ll_gpio.h ****   * @param  GPIOx GPIO Port
 546:Drivers/STM32F0xx_HAL_Driver/Inc/stm32f0xx_ll_gpio.h ****   * @param  Pin This parameter can be one of the following values:
 547:Drivers/STM32F0xx_HAL_Driver/Inc/stm32f0xx_ll_gpio.h ****   *         @arg @ref LL_GPIO_PIN_0
 548:Drivers/STM32F0xx_HAL_Driver/Inc/stm32f0xx_ll_gpio.h ****   *         @arg @ref LL_GPIO_PIN_1
 549:Drivers/STM32F0xx_HAL_Driver/Inc/stm32f0xx_ll_gpio.h ****   *         @arg @ref LL_GPIO_PIN_2
 550:Drivers/STM32F0xx_HAL_Driver/Inc/stm32f0xx_ll_gpio.h ****   *         @arg @ref LL_GPIO_PIN_3
 551:Drivers/STM32F0xx_HAL_Driver/Inc/stm32f0xx_ll_gpio.h ****   *         @arg @ref LL_GPIO_PIN_4
 552:Drivers/STM32F0xx_HAL_Driver/Inc/stm32f0xx_ll_gpio.h ****   *         @arg @ref LL_GPIO_PIN_5
 553:Drivers/STM32F0xx_HAL_Driver/Inc/stm32f0xx_ll_gpio.h ****   *         @arg @ref LL_GPIO_PIN_6
 554:Drivers/STM32F0xx_HAL_Driver/Inc/stm32f0xx_ll_gpio.h ****   *         @arg @ref LL_GPIO_PIN_7
 555:Drivers/STM32F0xx_HAL_Driver/Inc/stm32f0xx_ll_gpio.h ****   * @retval Returned value can be one of the following values:
 556:Drivers/STM32F0xx_HAL_Driver/Inc/stm32f0xx_ll_gpio.h ****   *         @arg @ref LL_GPIO_AF_0
 557:Drivers/STM32F0xx_HAL_Driver/Inc/stm32f0xx_ll_gpio.h ****   *         @arg @ref LL_GPIO_AF_1
 558:Drivers/STM32F0xx_HAL_Driver/Inc/stm32f0xx_ll_gpio.h ****   *         @arg @ref LL_GPIO_AF_2
 559:Drivers/STM32F0xx_HAL_Driver/Inc/stm32f0xx_ll_gpio.h ****   *         @arg @ref LL_GPIO_AF_3
 560:Drivers/STM32F0xx_HAL_Driver/Inc/stm32f0xx_ll_gpio.h ****   *         @arg @ref LL_GPIO_AF_4
 561:Drivers/STM32F0xx_HAL_Driver/Inc/stm32f0xx_ll_gpio.h ****   *         @arg @ref LL_GPIO_AF_5
 562:Drivers/STM32F0xx_HAL_Driver/Inc/stm32f0xx_ll_gpio.h ****   *         @arg @ref LL_GPIO_AF_6
 563:Drivers/STM32F0xx_HAL_Driver/Inc/stm32f0xx_ll_gpio.h ****   *         @arg @ref LL_GPIO_AF_7
 564:Drivers/STM32F0xx_HAL_Driver/Inc/stm32f0xx_ll_gpio.h ****   */
 565:Drivers/STM32F0xx_HAL_Driver/Inc/stm32f0xx_ll_gpio.h **** __STATIC_INLINE uint32_t LL_GPIO_GetAFPin_0_7(GPIO_TypeDef *GPIOx, uint32_t Pin)
 566:Drivers/STM32F0xx_HAL_Driver/Inc/stm32f0xx_ll_gpio.h **** {
 567:Drivers/STM32F0xx_HAL_Driver/Inc/stm32f0xx_ll_gpio.h ****   return (uint32_t)(READ_BIT(GPIOx->AFR[0],
 568:Drivers/STM32F0xx_HAL_Driver/Inc/stm32f0xx_ll_gpio.h ****                              ((((Pin * Pin) * Pin) * Pin) * GPIO_AFRL_AFSEL0)) / (((Pin * Pin) * Pi
 569:Drivers/STM32F0xx_HAL_Driver/Inc/stm32f0xx_ll_gpio.h **** }
 570:Drivers/STM32F0xx_HAL_Driver/Inc/stm32f0xx_ll_gpio.h **** 
 571:Drivers/STM32F0xx_HAL_Driver/Inc/stm32f0xx_ll_gpio.h **** /**
 572:Drivers/STM32F0xx_HAL_Driver/Inc/stm32f0xx_ll_gpio.h ****   * @brief  Configure gpio alternate function of a dedicated pin from 8 to 15 for a dedicated port.
 573:Drivers/STM32F0xx_HAL_Driver/Inc/stm32f0xx_ll_gpio.h ****   * @note   Possible values are from AF0 to AF7 depending on target.
 574:Drivers/STM32F0xx_HAL_Driver/Inc/stm32f0xx_ll_gpio.h ****   * @note   Warning: only one pin can be passed as parameter.
 575:Drivers/STM32F0xx_HAL_Driver/Inc/stm32f0xx_ll_gpio.h ****   * @rmtoll AFRH         AFSELy        LL_GPIO_SetAFPin_8_15
 576:Drivers/STM32F0xx_HAL_Driver/Inc/stm32f0xx_ll_gpio.h ****   * @param  GPIOx GPIO Port
 577:Drivers/STM32F0xx_HAL_Driver/Inc/stm32f0xx_ll_gpio.h ****   * @param  Pin This parameter can be one of the following values:
 578:Drivers/STM32F0xx_HAL_Driver/Inc/stm32f0xx_ll_gpio.h ****   *         @arg @ref LL_GPIO_PIN_8
 579:Drivers/STM32F0xx_HAL_Driver/Inc/stm32f0xx_ll_gpio.h ****   *         @arg @ref LL_GPIO_PIN_9
 580:Drivers/STM32F0xx_HAL_Driver/Inc/stm32f0xx_ll_gpio.h ****   *         @arg @ref LL_GPIO_PIN_10
 581:Drivers/STM32F0xx_HAL_Driver/Inc/stm32f0xx_ll_gpio.h ****   *         @arg @ref LL_GPIO_PIN_11
 582:Drivers/STM32F0xx_HAL_Driver/Inc/stm32f0xx_ll_gpio.h ****   *         @arg @ref LL_GPIO_PIN_12
 583:Drivers/STM32F0xx_HAL_Driver/Inc/stm32f0xx_ll_gpio.h ****   *         @arg @ref LL_GPIO_PIN_13
 584:Drivers/STM32F0xx_HAL_Driver/Inc/stm32f0xx_ll_gpio.h ****   *         @arg @ref LL_GPIO_PIN_14
 585:Drivers/STM32F0xx_HAL_Driver/Inc/stm32f0xx_ll_gpio.h ****   *         @arg @ref LL_GPIO_PIN_15
 586:Drivers/STM32F0xx_HAL_Driver/Inc/stm32f0xx_ll_gpio.h ****   * @param  Alternate This parameter can be one of the following values:
 587:Drivers/STM32F0xx_HAL_Driver/Inc/stm32f0xx_ll_gpio.h ****   *         @arg @ref LL_GPIO_AF_0
ARM GAS  /var/folders/zf/mkqpy7tx7p1_khjt1h6hykn40000gn/T//ccF4YHcI.s 			page 27


 588:Drivers/STM32F0xx_HAL_Driver/Inc/stm32f0xx_ll_gpio.h ****   *         @arg @ref LL_GPIO_AF_1
 589:Drivers/STM32F0xx_HAL_Driver/Inc/stm32f0xx_ll_gpio.h ****   *         @arg @ref LL_GPIO_AF_2
 590:Drivers/STM32F0xx_HAL_Driver/Inc/stm32f0xx_ll_gpio.h ****   *         @arg @ref LL_GPIO_AF_3
 591:Drivers/STM32F0xx_HAL_Driver/Inc/stm32f0xx_ll_gpio.h ****   *         @arg @ref LL_GPIO_AF_4
 592:Drivers/STM32F0xx_HAL_Driver/Inc/stm32f0xx_ll_gpio.h ****   *         @arg @ref LL_GPIO_AF_5
 593:Drivers/STM32F0xx_HAL_Driver/Inc/stm32f0xx_ll_gpio.h ****   *         @arg @ref LL_GPIO_AF_6
 594:Drivers/STM32F0xx_HAL_Driver/Inc/stm32f0xx_ll_gpio.h ****   *         @arg @ref LL_GPIO_AF_7
 595:Drivers/STM32F0xx_HAL_Driver/Inc/stm32f0xx_ll_gpio.h ****   * @retval None
 596:Drivers/STM32F0xx_HAL_Driver/Inc/stm32f0xx_ll_gpio.h ****   */
 597:Drivers/STM32F0xx_HAL_Driver/Inc/stm32f0xx_ll_gpio.h **** __STATIC_INLINE void LL_GPIO_SetAFPin_8_15(GPIO_TypeDef *GPIOx, uint32_t Pin, uint32_t Alternate)
 598:Drivers/STM32F0xx_HAL_Driver/Inc/stm32f0xx_ll_gpio.h **** {
 599:Drivers/STM32F0xx_HAL_Driver/Inc/stm32f0xx_ll_gpio.h ****   MODIFY_REG(GPIOx->AFR[1], (((((Pin >> 8U) * (Pin >> 8U)) * (Pin >> 8U)) * (Pin >> 8U)) * GPIO_AFR
 600:Drivers/STM32F0xx_HAL_Driver/Inc/stm32f0xx_ll_gpio.h ****              (((((Pin >> 8U) * (Pin >> 8U)) * (Pin >> 8U)) * (Pin >> 8U)) * Alternate));
 601:Drivers/STM32F0xx_HAL_Driver/Inc/stm32f0xx_ll_gpio.h **** }
 602:Drivers/STM32F0xx_HAL_Driver/Inc/stm32f0xx_ll_gpio.h **** 
 603:Drivers/STM32F0xx_HAL_Driver/Inc/stm32f0xx_ll_gpio.h **** /**
 604:Drivers/STM32F0xx_HAL_Driver/Inc/stm32f0xx_ll_gpio.h ****   * @brief  Return gpio alternate function of a dedicated pin from 8 to 15 for a dedicated port.
 605:Drivers/STM32F0xx_HAL_Driver/Inc/stm32f0xx_ll_gpio.h ****   * @note   Possible values are from AF0 to AF7 depending on target.
 606:Drivers/STM32F0xx_HAL_Driver/Inc/stm32f0xx_ll_gpio.h ****   * @rmtoll AFRH         AFSELy        LL_GPIO_GetAFPin_8_15
 607:Drivers/STM32F0xx_HAL_Driver/Inc/stm32f0xx_ll_gpio.h ****   * @param  GPIOx GPIO Port
 608:Drivers/STM32F0xx_HAL_Driver/Inc/stm32f0xx_ll_gpio.h ****   * @param  Pin This parameter can be one of the following values:
 609:Drivers/STM32F0xx_HAL_Driver/Inc/stm32f0xx_ll_gpio.h ****   *         @arg @ref LL_GPIO_PIN_8
 610:Drivers/STM32F0xx_HAL_Driver/Inc/stm32f0xx_ll_gpio.h ****   *         @arg @ref LL_GPIO_PIN_9
 611:Drivers/STM32F0xx_HAL_Driver/Inc/stm32f0xx_ll_gpio.h ****   *         @arg @ref LL_GPIO_PIN_10
 612:Drivers/STM32F0xx_HAL_Driver/Inc/stm32f0xx_ll_gpio.h ****   *         @arg @ref LL_GPIO_PIN_11
 613:Drivers/STM32F0xx_HAL_Driver/Inc/stm32f0xx_ll_gpio.h ****   *         @arg @ref LL_GPIO_PIN_12
 614:Drivers/STM32F0xx_HAL_Driver/Inc/stm32f0xx_ll_gpio.h ****   *         @arg @ref LL_GPIO_PIN_13
 615:Drivers/STM32F0xx_HAL_Driver/Inc/stm32f0xx_ll_gpio.h ****   *         @arg @ref LL_GPIO_PIN_14
 616:Drivers/STM32F0xx_HAL_Driver/Inc/stm32f0xx_ll_gpio.h ****   *         @arg @ref LL_GPIO_PIN_15
 617:Drivers/STM32F0xx_HAL_Driver/Inc/stm32f0xx_ll_gpio.h ****   * @retval Returned value can be one of the following values:
 618:Drivers/STM32F0xx_HAL_Driver/Inc/stm32f0xx_ll_gpio.h ****   *         @arg @ref LL_GPIO_AF_0
 619:Drivers/STM32F0xx_HAL_Driver/Inc/stm32f0xx_ll_gpio.h ****   *         @arg @ref LL_GPIO_AF_1
 620:Drivers/STM32F0xx_HAL_Driver/Inc/stm32f0xx_ll_gpio.h ****   *         @arg @ref LL_GPIO_AF_2
 621:Drivers/STM32F0xx_HAL_Driver/Inc/stm32f0xx_ll_gpio.h ****   *         @arg @ref LL_GPIO_AF_3
 622:Drivers/STM32F0xx_HAL_Driver/Inc/stm32f0xx_ll_gpio.h ****   *         @arg @ref LL_GPIO_AF_4
 623:Drivers/STM32F0xx_HAL_Driver/Inc/stm32f0xx_ll_gpio.h ****   *         @arg @ref LL_GPIO_AF_5
 624:Drivers/STM32F0xx_HAL_Driver/Inc/stm32f0xx_ll_gpio.h ****   *         @arg @ref LL_GPIO_AF_6
 625:Drivers/STM32F0xx_HAL_Driver/Inc/stm32f0xx_ll_gpio.h ****   *         @arg @ref LL_GPIO_AF_7
 626:Drivers/STM32F0xx_HAL_Driver/Inc/stm32f0xx_ll_gpio.h ****   */
 627:Drivers/STM32F0xx_HAL_Driver/Inc/stm32f0xx_ll_gpio.h **** __STATIC_INLINE uint32_t LL_GPIO_GetAFPin_8_15(GPIO_TypeDef *GPIOx, uint32_t Pin)
 628:Drivers/STM32F0xx_HAL_Driver/Inc/stm32f0xx_ll_gpio.h **** {
 629:Drivers/STM32F0xx_HAL_Driver/Inc/stm32f0xx_ll_gpio.h ****   return (uint32_t)(READ_BIT(GPIOx->AFR[1],
 630:Drivers/STM32F0xx_HAL_Driver/Inc/stm32f0xx_ll_gpio.h ****                              (((((Pin >> 8U) * (Pin >> 8U)) * (Pin >> 8U)) * (Pin >> 8U)) * GPIO_AF
 631:Drivers/STM32F0xx_HAL_Driver/Inc/stm32f0xx_ll_gpio.h ****                                  (Pin >> 8U)) * (Pin >> 8U)) * (Pin >> 8U)));
 632:Drivers/STM32F0xx_HAL_Driver/Inc/stm32f0xx_ll_gpio.h **** }
 633:Drivers/STM32F0xx_HAL_Driver/Inc/stm32f0xx_ll_gpio.h **** 
 634:Drivers/STM32F0xx_HAL_Driver/Inc/stm32f0xx_ll_gpio.h **** 
 635:Drivers/STM32F0xx_HAL_Driver/Inc/stm32f0xx_ll_gpio.h **** /**
 636:Drivers/STM32F0xx_HAL_Driver/Inc/stm32f0xx_ll_gpio.h ****   * @brief  Lock configuration of several pins for a dedicated port.
 637:Drivers/STM32F0xx_HAL_Driver/Inc/stm32f0xx_ll_gpio.h ****   * @note   When the lock sequence has been applied on a port bit, the
 638:Drivers/STM32F0xx_HAL_Driver/Inc/stm32f0xx_ll_gpio.h ****   *         value of this port bit can no longer be modified until the
 639:Drivers/STM32F0xx_HAL_Driver/Inc/stm32f0xx_ll_gpio.h ****   *         next reset.
 640:Drivers/STM32F0xx_HAL_Driver/Inc/stm32f0xx_ll_gpio.h ****   * @note   Each lock bit freezes a specific configuration register
 641:Drivers/STM32F0xx_HAL_Driver/Inc/stm32f0xx_ll_gpio.h ****   *         (control and alternate function registers).
 642:Drivers/STM32F0xx_HAL_Driver/Inc/stm32f0xx_ll_gpio.h ****   * @rmtoll LCKR         LCKK          LL_GPIO_LockPin
 643:Drivers/STM32F0xx_HAL_Driver/Inc/stm32f0xx_ll_gpio.h ****   * @param  GPIOx GPIO Port
 644:Drivers/STM32F0xx_HAL_Driver/Inc/stm32f0xx_ll_gpio.h ****   * @param  PinMask This parameter can be a combination of the following values:
ARM GAS  /var/folders/zf/mkqpy7tx7p1_khjt1h6hykn40000gn/T//ccF4YHcI.s 			page 28


 645:Drivers/STM32F0xx_HAL_Driver/Inc/stm32f0xx_ll_gpio.h ****   *         @arg @ref LL_GPIO_PIN_0
 646:Drivers/STM32F0xx_HAL_Driver/Inc/stm32f0xx_ll_gpio.h ****   *         @arg @ref LL_GPIO_PIN_1
 647:Drivers/STM32F0xx_HAL_Driver/Inc/stm32f0xx_ll_gpio.h ****   *         @arg @ref LL_GPIO_PIN_2
 648:Drivers/STM32F0xx_HAL_Driver/Inc/stm32f0xx_ll_gpio.h ****   *         @arg @ref LL_GPIO_PIN_3
 649:Drivers/STM32F0xx_HAL_Driver/Inc/stm32f0xx_ll_gpio.h ****   *         @arg @ref LL_GPIO_PIN_4
 650:Drivers/STM32F0xx_HAL_Driver/Inc/stm32f0xx_ll_gpio.h ****   *         @arg @ref LL_GPIO_PIN_5
 651:Drivers/STM32F0xx_HAL_Driver/Inc/stm32f0xx_ll_gpio.h ****   *         @arg @ref LL_GPIO_PIN_6
 652:Drivers/STM32F0xx_HAL_Driver/Inc/stm32f0xx_ll_gpio.h ****   *         @arg @ref LL_GPIO_PIN_7
 653:Drivers/STM32F0xx_HAL_Driver/Inc/stm32f0xx_ll_gpio.h ****   *         @arg @ref LL_GPIO_PIN_8
 654:Drivers/STM32F0xx_HAL_Driver/Inc/stm32f0xx_ll_gpio.h ****   *         @arg @ref LL_GPIO_PIN_9
 655:Drivers/STM32F0xx_HAL_Driver/Inc/stm32f0xx_ll_gpio.h ****   *         @arg @ref LL_GPIO_PIN_10
 656:Drivers/STM32F0xx_HAL_Driver/Inc/stm32f0xx_ll_gpio.h ****   *         @arg @ref LL_GPIO_PIN_11
 657:Drivers/STM32F0xx_HAL_Driver/Inc/stm32f0xx_ll_gpio.h ****   *         @arg @ref LL_GPIO_PIN_12
 658:Drivers/STM32F0xx_HAL_Driver/Inc/stm32f0xx_ll_gpio.h ****   *         @arg @ref LL_GPIO_PIN_13
 659:Drivers/STM32F0xx_HAL_Driver/Inc/stm32f0xx_ll_gpio.h ****   *         @arg @ref LL_GPIO_PIN_14
 660:Drivers/STM32F0xx_HAL_Driver/Inc/stm32f0xx_ll_gpio.h ****   *         @arg @ref LL_GPIO_PIN_15
 661:Drivers/STM32F0xx_HAL_Driver/Inc/stm32f0xx_ll_gpio.h ****   *         @arg @ref LL_GPIO_PIN_ALL
 662:Drivers/STM32F0xx_HAL_Driver/Inc/stm32f0xx_ll_gpio.h ****   * @retval None
 663:Drivers/STM32F0xx_HAL_Driver/Inc/stm32f0xx_ll_gpio.h ****   */
 664:Drivers/STM32F0xx_HAL_Driver/Inc/stm32f0xx_ll_gpio.h **** __STATIC_INLINE void LL_GPIO_LockPin(GPIO_TypeDef *GPIOx, uint32_t PinMask)
 665:Drivers/STM32F0xx_HAL_Driver/Inc/stm32f0xx_ll_gpio.h **** {
 666:Drivers/STM32F0xx_HAL_Driver/Inc/stm32f0xx_ll_gpio.h ****   __IO uint32_t temp;
 667:Drivers/STM32F0xx_HAL_Driver/Inc/stm32f0xx_ll_gpio.h ****   WRITE_REG(GPIOx->LCKR, GPIO_LCKR_LCKK | PinMask);
 668:Drivers/STM32F0xx_HAL_Driver/Inc/stm32f0xx_ll_gpio.h ****   WRITE_REG(GPIOx->LCKR, PinMask);
 669:Drivers/STM32F0xx_HAL_Driver/Inc/stm32f0xx_ll_gpio.h ****   WRITE_REG(GPIOx->LCKR, GPIO_LCKR_LCKK | PinMask);
 670:Drivers/STM32F0xx_HAL_Driver/Inc/stm32f0xx_ll_gpio.h ****   temp = READ_REG(GPIOx->LCKR);
 671:Drivers/STM32F0xx_HAL_Driver/Inc/stm32f0xx_ll_gpio.h ****   (void) temp;
 672:Drivers/STM32F0xx_HAL_Driver/Inc/stm32f0xx_ll_gpio.h **** }
 673:Drivers/STM32F0xx_HAL_Driver/Inc/stm32f0xx_ll_gpio.h **** 
 674:Drivers/STM32F0xx_HAL_Driver/Inc/stm32f0xx_ll_gpio.h **** /**
 675:Drivers/STM32F0xx_HAL_Driver/Inc/stm32f0xx_ll_gpio.h ****   * @brief  Return 1 if all pins passed as parameter, of a dedicated port, are locked. else Return 
 676:Drivers/STM32F0xx_HAL_Driver/Inc/stm32f0xx_ll_gpio.h ****   * @rmtoll LCKR         LCKy          LL_GPIO_IsPinLocked
 677:Drivers/STM32F0xx_HAL_Driver/Inc/stm32f0xx_ll_gpio.h ****   * @param  GPIOx GPIO Port
 678:Drivers/STM32F0xx_HAL_Driver/Inc/stm32f0xx_ll_gpio.h ****   * @param  PinMask This parameter can be a combination of the following values:
 679:Drivers/STM32F0xx_HAL_Driver/Inc/stm32f0xx_ll_gpio.h ****   *         @arg @ref LL_GPIO_PIN_0
 680:Drivers/STM32F0xx_HAL_Driver/Inc/stm32f0xx_ll_gpio.h ****   *         @arg @ref LL_GPIO_PIN_1
 681:Drivers/STM32F0xx_HAL_Driver/Inc/stm32f0xx_ll_gpio.h ****   *         @arg @ref LL_GPIO_PIN_2
 682:Drivers/STM32F0xx_HAL_Driver/Inc/stm32f0xx_ll_gpio.h ****   *         @arg @ref LL_GPIO_PIN_3
 683:Drivers/STM32F0xx_HAL_Driver/Inc/stm32f0xx_ll_gpio.h ****   *         @arg @ref LL_GPIO_PIN_4
 684:Drivers/STM32F0xx_HAL_Driver/Inc/stm32f0xx_ll_gpio.h ****   *         @arg @ref LL_GPIO_PIN_5
 685:Drivers/STM32F0xx_HAL_Driver/Inc/stm32f0xx_ll_gpio.h ****   *         @arg @ref LL_GPIO_PIN_6
 686:Drivers/STM32F0xx_HAL_Driver/Inc/stm32f0xx_ll_gpio.h ****   *         @arg @ref LL_GPIO_PIN_7
 687:Drivers/STM32F0xx_HAL_Driver/Inc/stm32f0xx_ll_gpio.h ****   *         @arg @ref LL_GPIO_PIN_8
 688:Drivers/STM32F0xx_HAL_Driver/Inc/stm32f0xx_ll_gpio.h ****   *         @arg @ref LL_GPIO_PIN_9
 689:Drivers/STM32F0xx_HAL_Driver/Inc/stm32f0xx_ll_gpio.h ****   *         @arg @ref LL_GPIO_PIN_10
 690:Drivers/STM32F0xx_HAL_Driver/Inc/stm32f0xx_ll_gpio.h ****   *         @arg @ref LL_GPIO_PIN_11
 691:Drivers/STM32F0xx_HAL_Driver/Inc/stm32f0xx_ll_gpio.h ****   *         @arg @ref LL_GPIO_PIN_12
 692:Drivers/STM32F0xx_HAL_Driver/Inc/stm32f0xx_ll_gpio.h ****   *         @arg @ref LL_GPIO_PIN_13
 693:Drivers/STM32F0xx_HAL_Driver/Inc/stm32f0xx_ll_gpio.h ****   *         @arg @ref LL_GPIO_PIN_14
 694:Drivers/STM32F0xx_HAL_Driver/Inc/stm32f0xx_ll_gpio.h ****   *         @arg @ref LL_GPIO_PIN_15
 695:Drivers/STM32F0xx_HAL_Driver/Inc/stm32f0xx_ll_gpio.h ****   *         @arg @ref LL_GPIO_PIN_ALL
 696:Drivers/STM32F0xx_HAL_Driver/Inc/stm32f0xx_ll_gpio.h ****   * @retval State of bit (1 or 0).
 697:Drivers/STM32F0xx_HAL_Driver/Inc/stm32f0xx_ll_gpio.h ****   */
 698:Drivers/STM32F0xx_HAL_Driver/Inc/stm32f0xx_ll_gpio.h **** __STATIC_INLINE uint32_t LL_GPIO_IsPinLocked(GPIO_TypeDef *GPIOx, uint32_t PinMask)
 699:Drivers/STM32F0xx_HAL_Driver/Inc/stm32f0xx_ll_gpio.h **** {
 700:Drivers/STM32F0xx_HAL_Driver/Inc/stm32f0xx_ll_gpio.h ****   return (READ_BIT(GPIOx->LCKR, PinMask) == (PinMask));
 701:Drivers/STM32F0xx_HAL_Driver/Inc/stm32f0xx_ll_gpio.h **** }
ARM GAS  /var/folders/zf/mkqpy7tx7p1_khjt1h6hykn40000gn/T//ccF4YHcI.s 			page 29


 702:Drivers/STM32F0xx_HAL_Driver/Inc/stm32f0xx_ll_gpio.h **** 
 703:Drivers/STM32F0xx_HAL_Driver/Inc/stm32f0xx_ll_gpio.h **** /**
 704:Drivers/STM32F0xx_HAL_Driver/Inc/stm32f0xx_ll_gpio.h ****   * @brief  Return 1 if one of the pin of a dedicated port is locked. else return 0.
 705:Drivers/STM32F0xx_HAL_Driver/Inc/stm32f0xx_ll_gpio.h ****   * @rmtoll LCKR         LCKK          LL_GPIO_IsAnyPinLocked
 706:Drivers/STM32F0xx_HAL_Driver/Inc/stm32f0xx_ll_gpio.h ****   * @param  GPIOx GPIO Port
 707:Drivers/STM32F0xx_HAL_Driver/Inc/stm32f0xx_ll_gpio.h ****   * @retval State of bit (1 or 0).
 708:Drivers/STM32F0xx_HAL_Driver/Inc/stm32f0xx_ll_gpio.h ****   */
 709:Drivers/STM32F0xx_HAL_Driver/Inc/stm32f0xx_ll_gpio.h **** __STATIC_INLINE uint32_t LL_GPIO_IsAnyPinLocked(GPIO_TypeDef *GPIOx)
 710:Drivers/STM32F0xx_HAL_Driver/Inc/stm32f0xx_ll_gpio.h **** {
 711:Drivers/STM32F0xx_HAL_Driver/Inc/stm32f0xx_ll_gpio.h ****   return (READ_BIT(GPIOx->LCKR, GPIO_LCKR_LCKK) == (GPIO_LCKR_LCKK));
 712:Drivers/STM32F0xx_HAL_Driver/Inc/stm32f0xx_ll_gpio.h **** }
 713:Drivers/STM32F0xx_HAL_Driver/Inc/stm32f0xx_ll_gpio.h **** 
 714:Drivers/STM32F0xx_HAL_Driver/Inc/stm32f0xx_ll_gpio.h **** /**
 715:Drivers/STM32F0xx_HAL_Driver/Inc/stm32f0xx_ll_gpio.h ****   * @}
 716:Drivers/STM32F0xx_HAL_Driver/Inc/stm32f0xx_ll_gpio.h ****   */
 717:Drivers/STM32F0xx_HAL_Driver/Inc/stm32f0xx_ll_gpio.h **** 
 718:Drivers/STM32F0xx_HAL_Driver/Inc/stm32f0xx_ll_gpio.h **** /** @defgroup GPIO_LL_EF_Data_Access Data Access
 719:Drivers/STM32F0xx_HAL_Driver/Inc/stm32f0xx_ll_gpio.h ****   * @{
 720:Drivers/STM32F0xx_HAL_Driver/Inc/stm32f0xx_ll_gpio.h ****   */
 721:Drivers/STM32F0xx_HAL_Driver/Inc/stm32f0xx_ll_gpio.h **** 
 722:Drivers/STM32F0xx_HAL_Driver/Inc/stm32f0xx_ll_gpio.h **** /**
 723:Drivers/STM32F0xx_HAL_Driver/Inc/stm32f0xx_ll_gpio.h ****   * @brief  Return full input data register value for a dedicated port.
 724:Drivers/STM32F0xx_HAL_Driver/Inc/stm32f0xx_ll_gpio.h ****   * @rmtoll IDR          IDy           LL_GPIO_ReadInputPort
 725:Drivers/STM32F0xx_HAL_Driver/Inc/stm32f0xx_ll_gpio.h ****   * @param  GPIOx GPIO Port
 726:Drivers/STM32F0xx_HAL_Driver/Inc/stm32f0xx_ll_gpio.h ****   * @retval Input data register value of port
 727:Drivers/STM32F0xx_HAL_Driver/Inc/stm32f0xx_ll_gpio.h ****   */
 728:Drivers/STM32F0xx_HAL_Driver/Inc/stm32f0xx_ll_gpio.h **** __STATIC_INLINE uint32_t LL_GPIO_ReadInputPort(GPIO_TypeDef *GPIOx)
 729:Drivers/STM32F0xx_HAL_Driver/Inc/stm32f0xx_ll_gpio.h **** {
 730:Drivers/STM32F0xx_HAL_Driver/Inc/stm32f0xx_ll_gpio.h ****   return (uint32_t)(READ_REG(GPIOx->IDR));
 731:Drivers/STM32F0xx_HAL_Driver/Inc/stm32f0xx_ll_gpio.h **** }
 732:Drivers/STM32F0xx_HAL_Driver/Inc/stm32f0xx_ll_gpio.h **** 
 733:Drivers/STM32F0xx_HAL_Driver/Inc/stm32f0xx_ll_gpio.h **** /**
 734:Drivers/STM32F0xx_HAL_Driver/Inc/stm32f0xx_ll_gpio.h ****   * @brief  Return if input data level for several pins of dedicated port is high or low.
 735:Drivers/STM32F0xx_HAL_Driver/Inc/stm32f0xx_ll_gpio.h ****   * @rmtoll IDR          IDy           LL_GPIO_IsInputPinSet
 736:Drivers/STM32F0xx_HAL_Driver/Inc/stm32f0xx_ll_gpio.h ****   * @param  GPIOx GPIO Port
 737:Drivers/STM32F0xx_HAL_Driver/Inc/stm32f0xx_ll_gpio.h ****   * @param  PinMask This parameter can be a combination of the following values:
 738:Drivers/STM32F0xx_HAL_Driver/Inc/stm32f0xx_ll_gpio.h ****   *         @arg @ref LL_GPIO_PIN_0
 739:Drivers/STM32F0xx_HAL_Driver/Inc/stm32f0xx_ll_gpio.h ****   *         @arg @ref LL_GPIO_PIN_1
 740:Drivers/STM32F0xx_HAL_Driver/Inc/stm32f0xx_ll_gpio.h ****   *         @arg @ref LL_GPIO_PIN_2
 741:Drivers/STM32F0xx_HAL_Driver/Inc/stm32f0xx_ll_gpio.h ****   *         @arg @ref LL_GPIO_PIN_3
 742:Drivers/STM32F0xx_HAL_Driver/Inc/stm32f0xx_ll_gpio.h ****   *         @arg @ref LL_GPIO_PIN_4
 743:Drivers/STM32F0xx_HAL_Driver/Inc/stm32f0xx_ll_gpio.h ****   *         @arg @ref LL_GPIO_PIN_5
 744:Drivers/STM32F0xx_HAL_Driver/Inc/stm32f0xx_ll_gpio.h ****   *         @arg @ref LL_GPIO_PIN_6
 745:Drivers/STM32F0xx_HAL_Driver/Inc/stm32f0xx_ll_gpio.h ****   *         @arg @ref LL_GPIO_PIN_7
 746:Drivers/STM32F0xx_HAL_Driver/Inc/stm32f0xx_ll_gpio.h ****   *         @arg @ref LL_GPIO_PIN_8
 747:Drivers/STM32F0xx_HAL_Driver/Inc/stm32f0xx_ll_gpio.h ****   *         @arg @ref LL_GPIO_PIN_9
 748:Drivers/STM32F0xx_HAL_Driver/Inc/stm32f0xx_ll_gpio.h ****   *         @arg @ref LL_GPIO_PIN_10
 749:Drivers/STM32F0xx_HAL_Driver/Inc/stm32f0xx_ll_gpio.h ****   *         @arg @ref LL_GPIO_PIN_11
 750:Drivers/STM32F0xx_HAL_Driver/Inc/stm32f0xx_ll_gpio.h ****   *         @arg @ref LL_GPIO_PIN_12
 751:Drivers/STM32F0xx_HAL_Driver/Inc/stm32f0xx_ll_gpio.h ****   *         @arg @ref LL_GPIO_PIN_13
 752:Drivers/STM32F0xx_HAL_Driver/Inc/stm32f0xx_ll_gpio.h ****   *         @arg @ref LL_GPIO_PIN_14
 753:Drivers/STM32F0xx_HAL_Driver/Inc/stm32f0xx_ll_gpio.h ****   *         @arg @ref LL_GPIO_PIN_15
 754:Drivers/STM32F0xx_HAL_Driver/Inc/stm32f0xx_ll_gpio.h ****   *         @arg @ref LL_GPIO_PIN_ALL
 755:Drivers/STM32F0xx_HAL_Driver/Inc/stm32f0xx_ll_gpio.h ****   * @retval State of bit (1 or 0).
 756:Drivers/STM32F0xx_HAL_Driver/Inc/stm32f0xx_ll_gpio.h ****   */
 757:Drivers/STM32F0xx_HAL_Driver/Inc/stm32f0xx_ll_gpio.h **** __STATIC_INLINE uint32_t LL_GPIO_IsInputPinSet(GPIO_TypeDef *GPIOx, uint32_t PinMask)
 758:Drivers/STM32F0xx_HAL_Driver/Inc/stm32f0xx_ll_gpio.h **** {
ARM GAS  /var/folders/zf/mkqpy7tx7p1_khjt1h6hykn40000gn/T//ccF4YHcI.s 			page 30


 759:Drivers/STM32F0xx_HAL_Driver/Inc/stm32f0xx_ll_gpio.h ****   return (READ_BIT(GPIOx->IDR, PinMask) == (PinMask));
 760:Drivers/STM32F0xx_HAL_Driver/Inc/stm32f0xx_ll_gpio.h **** }
 761:Drivers/STM32F0xx_HAL_Driver/Inc/stm32f0xx_ll_gpio.h **** 
 762:Drivers/STM32F0xx_HAL_Driver/Inc/stm32f0xx_ll_gpio.h **** /**
 763:Drivers/STM32F0xx_HAL_Driver/Inc/stm32f0xx_ll_gpio.h ****   * @brief  Write output data register for the port.
 764:Drivers/STM32F0xx_HAL_Driver/Inc/stm32f0xx_ll_gpio.h ****   * @rmtoll ODR          ODy           LL_GPIO_WriteOutputPort
 765:Drivers/STM32F0xx_HAL_Driver/Inc/stm32f0xx_ll_gpio.h ****   * @param  GPIOx GPIO Port
 766:Drivers/STM32F0xx_HAL_Driver/Inc/stm32f0xx_ll_gpio.h ****   * @param  PortValue Level value for each pin of the port
 767:Drivers/STM32F0xx_HAL_Driver/Inc/stm32f0xx_ll_gpio.h ****   * @retval None
 768:Drivers/STM32F0xx_HAL_Driver/Inc/stm32f0xx_ll_gpio.h ****   */
 769:Drivers/STM32F0xx_HAL_Driver/Inc/stm32f0xx_ll_gpio.h **** __STATIC_INLINE void LL_GPIO_WriteOutputPort(GPIO_TypeDef *GPIOx, uint32_t PortValue)
 770:Drivers/STM32F0xx_HAL_Driver/Inc/stm32f0xx_ll_gpio.h **** {
 771:Drivers/STM32F0xx_HAL_Driver/Inc/stm32f0xx_ll_gpio.h ****   WRITE_REG(GPIOx->ODR, PortValue);
 772:Drivers/STM32F0xx_HAL_Driver/Inc/stm32f0xx_ll_gpio.h **** }
 773:Drivers/STM32F0xx_HAL_Driver/Inc/stm32f0xx_ll_gpio.h **** 
 774:Drivers/STM32F0xx_HAL_Driver/Inc/stm32f0xx_ll_gpio.h **** /**
 775:Drivers/STM32F0xx_HAL_Driver/Inc/stm32f0xx_ll_gpio.h ****   * @brief  Return full output data register value for a dedicated port.
 776:Drivers/STM32F0xx_HAL_Driver/Inc/stm32f0xx_ll_gpio.h ****   * @rmtoll ODR          ODy           LL_GPIO_ReadOutputPort
 777:Drivers/STM32F0xx_HAL_Driver/Inc/stm32f0xx_ll_gpio.h ****   * @param  GPIOx GPIO Port
 778:Drivers/STM32F0xx_HAL_Driver/Inc/stm32f0xx_ll_gpio.h ****   * @retval Output data register value of port
 779:Drivers/STM32F0xx_HAL_Driver/Inc/stm32f0xx_ll_gpio.h ****   */
 780:Drivers/STM32F0xx_HAL_Driver/Inc/stm32f0xx_ll_gpio.h **** __STATIC_INLINE uint32_t LL_GPIO_ReadOutputPort(GPIO_TypeDef *GPIOx)
 781:Drivers/STM32F0xx_HAL_Driver/Inc/stm32f0xx_ll_gpio.h **** {
 782:Drivers/STM32F0xx_HAL_Driver/Inc/stm32f0xx_ll_gpio.h ****   return (uint32_t)(READ_REG(GPIOx->ODR));
 783:Drivers/STM32F0xx_HAL_Driver/Inc/stm32f0xx_ll_gpio.h **** }
 784:Drivers/STM32F0xx_HAL_Driver/Inc/stm32f0xx_ll_gpio.h **** 
 785:Drivers/STM32F0xx_HAL_Driver/Inc/stm32f0xx_ll_gpio.h **** /**
 786:Drivers/STM32F0xx_HAL_Driver/Inc/stm32f0xx_ll_gpio.h ****   * @brief  Return if input data level for several pins of dedicated port is high or low.
 787:Drivers/STM32F0xx_HAL_Driver/Inc/stm32f0xx_ll_gpio.h ****   * @rmtoll ODR          ODy           LL_GPIO_IsOutputPinSet
 788:Drivers/STM32F0xx_HAL_Driver/Inc/stm32f0xx_ll_gpio.h ****   * @param  GPIOx GPIO Port
 789:Drivers/STM32F0xx_HAL_Driver/Inc/stm32f0xx_ll_gpio.h ****   * @param  PinMask This parameter can be a combination of the following values:
 790:Drivers/STM32F0xx_HAL_Driver/Inc/stm32f0xx_ll_gpio.h ****   *         @arg @ref LL_GPIO_PIN_0
 791:Drivers/STM32F0xx_HAL_Driver/Inc/stm32f0xx_ll_gpio.h ****   *         @arg @ref LL_GPIO_PIN_1
 792:Drivers/STM32F0xx_HAL_Driver/Inc/stm32f0xx_ll_gpio.h ****   *         @arg @ref LL_GPIO_PIN_2
 793:Drivers/STM32F0xx_HAL_Driver/Inc/stm32f0xx_ll_gpio.h ****   *         @arg @ref LL_GPIO_PIN_3
 794:Drivers/STM32F0xx_HAL_Driver/Inc/stm32f0xx_ll_gpio.h ****   *         @arg @ref LL_GPIO_PIN_4
 795:Drivers/STM32F0xx_HAL_Driver/Inc/stm32f0xx_ll_gpio.h ****   *         @arg @ref LL_GPIO_PIN_5
 796:Drivers/STM32F0xx_HAL_Driver/Inc/stm32f0xx_ll_gpio.h ****   *         @arg @ref LL_GPIO_PIN_6
 797:Drivers/STM32F0xx_HAL_Driver/Inc/stm32f0xx_ll_gpio.h ****   *         @arg @ref LL_GPIO_PIN_7
 798:Drivers/STM32F0xx_HAL_Driver/Inc/stm32f0xx_ll_gpio.h ****   *         @arg @ref LL_GPIO_PIN_8
 799:Drivers/STM32F0xx_HAL_Driver/Inc/stm32f0xx_ll_gpio.h ****   *         @arg @ref LL_GPIO_PIN_9
 800:Drivers/STM32F0xx_HAL_Driver/Inc/stm32f0xx_ll_gpio.h ****   *         @arg @ref LL_GPIO_PIN_10
 801:Drivers/STM32F0xx_HAL_Driver/Inc/stm32f0xx_ll_gpio.h ****   *         @arg @ref LL_GPIO_PIN_11
 802:Drivers/STM32F0xx_HAL_Driver/Inc/stm32f0xx_ll_gpio.h ****   *         @arg @ref LL_GPIO_PIN_12
 803:Drivers/STM32F0xx_HAL_Driver/Inc/stm32f0xx_ll_gpio.h ****   *         @arg @ref LL_GPIO_PIN_13
 804:Drivers/STM32F0xx_HAL_Driver/Inc/stm32f0xx_ll_gpio.h ****   *         @arg @ref LL_GPIO_PIN_14
 805:Drivers/STM32F0xx_HAL_Driver/Inc/stm32f0xx_ll_gpio.h ****   *         @arg @ref LL_GPIO_PIN_15
 806:Drivers/STM32F0xx_HAL_Driver/Inc/stm32f0xx_ll_gpio.h ****   *         @arg @ref LL_GPIO_PIN_ALL
 807:Drivers/STM32F0xx_HAL_Driver/Inc/stm32f0xx_ll_gpio.h ****   * @retval State of bit (1 or 0).
 808:Drivers/STM32F0xx_HAL_Driver/Inc/stm32f0xx_ll_gpio.h ****   */
 809:Drivers/STM32F0xx_HAL_Driver/Inc/stm32f0xx_ll_gpio.h **** __STATIC_INLINE uint32_t LL_GPIO_IsOutputPinSet(GPIO_TypeDef *GPIOx, uint32_t PinMask)
 810:Drivers/STM32F0xx_HAL_Driver/Inc/stm32f0xx_ll_gpio.h **** {
 811:Drivers/STM32F0xx_HAL_Driver/Inc/stm32f0xx_ll_gpio.h ****   return (READ_BIT(GPIOx->ODR, PinMask) == (PinMask));
 812:Drivers/STM32F0xx_HAL_Driver/Inc/stm32f0xx_ll_gpio.h **** }
 813:Drivers/STM32F0xx_HAL_Driver/Inc/stm32f0xx_ll_gpio.h **** 
 814:Drivers/STM32F0xx_HAL_Driver/Inc/stm32f0xx_ll_gpio.h **** /**
 815:Drivers/STM32F0xx_HAL_Driver/Inc/stm32f0xx_ll_gpio.h ****   * @brief  Set several pins to high level on dedicated gpio port.
ARM GAS  /var/folders/zf/mkqpy7tx7p1_khjt1h6hykn40000gn/T//ccF4YHcI.s 			page 31


 816:Drivers/STM32F0xx_HAL_Driver/Inc/stm32f0xx_ll_gpio.h ****   * @rmtoll BSRR         BSy           LL_GPIO_SetOutputPin
 817:Drivers/STM32F0xx_HAL_Driver/Inc/stm32f0xx_ll_gpio.h ****   * @param  GPIOx GPIO Port
 818:Drivers/STM32F0xx_HAL_Driver/Inc/stm32f0xx_ll_gpio.h ****   * @param  PinMask This parameter can be a combination of the following values:
 819:Drivers/STM32F0xx_HAL_Driver/Inc/stm32f0xx_ll_gpio.h ****   *         @arg @ref LL_GPIO_PIN_0
 820:Drivers/STM32F0xx_HAL_Driver/Inc/stm32f0xx_ll_gpio.h ****   *         @arg @ref LL_GPIO_PIN_1
 821:Drivers/STM32F0xx_HAL_Driver/Inc/stm32f0xx_ll_gpio.h ****   *         @arg @ref LL_GPIO_PIN_2
 822:Drivers/STM32F0xx_HAL_Driver/Inc/stm32f0xx_ll_gpio.h ****   *         @arg @ref LL_GPIO_PIN_3
 823:Drivers/STM32F0xx_HAL_Driver/Inc/stm32f0xx_ll_gpio.h ****   *         @arg @ref LL_GPIO_PIN_4
 824:Drivers/STM32F0xx_HAL_Driver/Inc/stm32f0xx_ll_gpio.h ****   *         @arg @ref LL_GPIO_PIN_5
 825:Drivers/STM32F0xx_HAL_Driver/Inc/stm32f0xx_ll_gpio.h ****   *         @arg @ref LL_GPIO_PIN_6
 826:Drivers/STM32F0xx_HAL_Driver/Inc/stm32f0xx_ll_gpio.h ****   *         @arg @ref LL_GPIO_PIN_7
 827:Drivers/STM32F0xx_HAL_Driver/Inc/stm32f0xx_ll_gpio.h ****   *         @arg @ref LL_GPIO_PIN_8
 828:Drivers/STM32F0xx_HAL_Driver/Inc/stm32f0xx_ll_gpio.h ****   *         @arg @ref LL_GPIO_PIN_9
 829:Drivers/STM32F0xx_HAL_Driver/Inc/stm32f0xx_ll_gpio.h ****   *         @arg @ref LL_GPIO_PIN_10
 830:Drivers/STM32F0xx_HAL_Driver/Inc/stm32f0xx_ll_gpio.h ****   *         @arg @ref LL_GPIO_PIN_11
 831:Drivers/STM32F0xx_HAL_Driver/Inc/stm32f0xx_ll_gpio.h ****   *         @arg @ref LL_GPIO_PIN_12
 832:Drivers/STM32F0xx_HAL_Driver/Inc/stm32f0xx_ll_gpio.h ****   *         @arg @ref LL_GPIO_PIN_13
 833:Drivers/STM32F0xx_HAL_Driver/Inc/stm32f0xx_ll_gpio.h ****   *         @arg @ref LL_GPIO_PIN_14
 834:Drivers/STM32F0xx_HAL_Driver/Inc/stm32f0xx_ll_gpio.h ****   *         @arg @ref LL_GPIO_PIN_15
 835:Drivers/STM32F0xx_HAL_Driver/Inc/stm32f0xx_ll_gpio.h ****   *         @arg @ref LL_GPIO_PIN_ALL
 836:Drivers/STM32F0xx_HAL_Driver/Inc/stm32f0xx_ll_gpio.h ****   * @retval None
 837:Drivers/STM32F0xx_HAL_Driver/Inc/stm32f0xx_ll_gpio.h ****   */
 838:Drivers/STM32F0xx_HAL_Driver/Inc/stm32f0xx_ll_gpio.h **** __STATIC_INLINE void LL_GPIO_SetOutputPin(GPIO_TypeDef *GPIOx, uint32_t PinMask)
 839:Drivers/STM32F0xx_HAL_Driver/Inc/stm32f0xx_ll_gpio.h **** {
 840:Drivers/STM32F0xx_HAL_Driver/Inc/stm32f0xx_ll_gpio.h ****   WRITE_REG(GPIOx->BSRR, PinMask);
 841:Drivers/STM32F0xx_HAL_Driver/Inc/stm32f0xx_ll_gpio.h **** }
 842:Drivers/STM32F0xx_HAL_Driver/Inc/stm32f0xx_ll_gpio.h **** 
 843:Drivers/STM32F0xx_HAL_Driver/Inc/stm32f0xx_ll_gpio.h **** /**
 844:Drivers/STM32F0xx_HAL_Driver/Inc/stm32f0xx_ll_gpio.h ****   * @brief  Set several pins to low level on dedicated gpio port.
 845:Drivers/STM32F0xx_HAL_Driver/Inc/stm32f0xx_ll_gpio.h ****   * @rmtoll BRR          BRy           LL_GPIO_ResetOutputPin
 846:Drivers/STM32F0xx_HAL_Driver/Inc/stm32f0xx_ll_gpio.h ****   * @param  GPIOx GPIO Port
 847:Drivers/STM32F0xx_HAL_Driver/Inc/stm32f0xx_ll_gpio.h ****   * @param  PinMask This parameter can be a combination of the following values:
 848:Drivers/STM32F0xx_HAL_Driver/Inc/stm32f0xx_ll_gpio.h ****   *         @arg @ref LL_GPIO_PIN_0
 849:Drivers/STM32F0xx_HAL_Driver/Inc/stm32f0xx_ll_gpio.h ****   *         @arg @ref LL_GPIO_PIN_1
 850:Drivers/STM32F0xx_HAL_Driver/Inc/stm32f0xx_ll_gpio.h ****   *         @arg @ref LL_GPIO_PIN_2
 851:Drivers/STM32F0xx_HAL_Driver/Inc/stm32f0xx_ll_gpio.h ****   *         @arg @ref LL_GPIO_PIN_3
 852:Drivers/STM32F0xx_HAL_Driver/Inc/stm32f0xx_ll_gpio.h ****   *         @arg @ref LL_GPIO_PIN_4
 853:Drivers/STM32F0xx_HAL_Driver/Inc/stm32f0xx_ll_gpio.h ****   *         @arg @ref LL_GPIO_PIN_5
 854:Drivers/STM32F0xx_HAL_Driver/Inc/stm32f0xx_ll_gpio.h ****   *         @arg @ref LL_GPIO_PIN_6
 855:Drivers/STM32F0xx_HAL_Driver/Inc/stm32f0xx_ll_gpio.h ****   *         @arg @ref LL_GPIO_PIN_7
 856:Drivers/STM32F0xx_HAL_Driver/Inc/stm32f0xx_ll_gpio.h ****   *         @arg @ref LL_GPIO_PIN_8
 857:Drivers/STM32F0xx_HAL_Driver/Inc/stm32f0xx_ll_gpio.h ****   *         @arg @ref LL_GPIO_PIN_9
 858:Drivers/STM32F0xx_HAL_Driver/Inc/stm32f0xx_ll_gpio.h ****   *         @arg @ref LL_GPIO_PIN_10
 859:Drivers/STM32F0xx_HAL_Driver/Inc/stm32f0xx_ll_gpio.h ****   *         @arg @ref LL_GPIO_PIN_11
 860:Drivers/STM32F0xx_HAL_Driver/Inc/stm32f0xx_ll_gpio.h ****   *         @arg @ref LL_GPIO_PIN_12
 861:Drivers/STM32F0xx_HAL_Driver/Inc/stm32f0xx_ll_gpio.h ****   *         @arg @ref LL_GPIO_PIN_13
 862:Drivers/STM32F0xx_HAL_Driver/Inc/stm32f0xx_ll_gpio.h ****   *         @arg @ref LL_GPIO_PIN_14
 863:Drivers/STM32F0xx_HAL_Driver/Inc/stm32f0xx_ll_gpio.h ****   *         @arg @ref LL_GPIO_PIN_15
 864:Drivers/STM32F0xx_HAL_Driver/Inc/stm32f0xx_ll_gpio.h ****   *         @arg @ref LL_GPIO_PIN_ALL
 865:Drivers/STM32F0xx_HAL_Driver/Inc/stm32f0xx_ll_gpio.h ****   * @retval None
 866:Drivers/STM32F0xx_HAL_Driver/Inc/stm32f0xx_ll_gpio.h ****   */
 867:Drivers/STM32F0xx_HAL_Driver/Inc/stm32f0xx_ll_gpio.h **** __STATIC_INLINE void LL_GPIO_ResetOutputPin(GPIO_TypeDef *GPIOx, uint32_t PinMask)
 136              		.loc 3 867 22 view .LVU33
 137              	.LBB53:
 868:Drivers/STM32F0xx_HAL_Driver/Inc/stm32f0xx_ll_gpio.h **** {
 869:Drivers/STM32F0xx_HAL_Driver/Inc/stm32f0xx_ll_gpio.h ****   WRITE_REG(GPIOx->BRR, PinMask);
 138              		.loc 3 869 3 view .LVU34
ARM GAS  /var/folders/zf/mkqpy7tx7p1_khjt1h6hykn40000gn/T//ccF4YHcI.s 			page 32


 139 0056 1F4F     		ldr	r7, .L2+4
 140 0058 0124     		movs	r4, #1
 141 005a BC62     		str	r4, [r7, #40]
 142              	.LVL5:
 143              		.loc 3 869 3 is_stmt 0 view .LVU35
 144              	.LBE53:
 145              	.LBE52:
 519:Core/Src/main.c **** 
 520:Core/Src/main.c **** 	/**/
 521:Core/Src/main.c **** 	LL_GPIO_ResetOutputPin(LED7_GPIO_Port, LED7_Pin);
 146              		.loc 1 521 2 is_stmt 1 view .LVU36
 147              	.LBB54:
 148              	.LBI54:
 867:Drivers/STM32F0xx_HAL_Driver/Inc/stm32f0xx_ll_gpio.h **** {
 149              		.loc 3 867 22 view .LVU37
 150              	.LBB55:
 151              		.loc 3 869 3 view .LVU38
 152 005c 8023     		movs	r3, #128
 153 005e 9846     		mov	r8, r3
 154 0060 BB62     		str	r3, [r7, #40]
 155              	.LVL6:
 156              		.loc 3 869 3 is_stmt 0 view .LVU39
 157              	.LBE55:
 158              	.LBE54:
 522:Core/Src/main.c **** 
 523:Core/Src/main.c **** 	/**/
 524:Core/Src/main.c **** 	LL_SYSCFG_SetEXTISource(LL_SYSCFG_EXTI_PORTA, LL_SYSCFG_EXTI_LINE0);
 159              		.loc 1 524 2 is_stmt 1 view .LVU40
 160              	.LBB56:
 161              	.LBI56:
 162              		.file 4 "Drivers/STM32F0xx_HAL_Driver/Inc/stm32f0xx_ll_system.h"
   1:Drivers/STM32F0xx_HAL_Driver/Inc/stm32f0xx_ll_system.h **** /**
   2:Drivers/STM32F0xx_HAL_Driver/Inc/stm32f0xx_ll_system.h ****   ******************************************************************************
   3:Drivers/STM32F0xx_HAL_Driver/Inc/stm32f0xx_ll_system.h ****   * @file    stm32f0xx_ll_system.h
   4:Drivers/STM32F0xx_HAL_Driver/Inc/stm32f0xx_ll_system.h ****   * @author  MCD Application Team
   5:Drivers/STM32F0xx_HAL_Driver/Inc/stm32f0xx_ll_system.h ****   * @brief   Header file of SYSTEM LL module.
   6:Drivers/STM32F0xx_HAL_Driver/Inc/stm32f0xx_ll_system.h ****   @verbatim
   7:Drivers/STM32F0xx_HAL_Driver/Inc/stm32f0xx_ll_system.h ****   ==============================================================================
   8:Drivers/STM32F0xx_HAL_Driver/Inc/stm32f0xx_ll_system.h ****                      ##### How to use this driver #####
   9:Drivers/STM32F0xx_HAL_Driver/Inc/stm32f0xx_ll_system.h ****   ==============================================================================
  10:Drivers/STM32F0xx_HAL_Driver/Inc/stm32f0xx_ll_system.h ****     [..]
  11:Drivers/STM32F0xx_HAL_Driver/Inc/stm32f0xx_ll_system.h ****     The LL SYSTEM driver contains a set of generic APIs that can be
  12:Drivers/STM32F0xx_HAL_Driver/Inc/stm32f0xx_ll_system.h ****     used by user:
  13:Drivers/STM32F0xx_HAL_Driver/Inc/stm32f0xx_ll_system.h ****       (+) Some of the FLASH features need to be handled in the SYSTEM file.
  14:Drivers/STM32F0xx_HAL_Driver/Inc/stm32f0xx_ll_system.h ****       (+) Access to DBGCMU registers
  15:Drivers/STM32F0xx_HAL_Driver/Inc/stm32f0xx_ll_system.h ****       (+) Access to SYSCFG registers
  16:Drivers/STM32F0xx_HAL_Driver/Inc/stm32f0xx_ll_system.h **** 
  17:Drivers/STM32F0xx_HAL_Driver/Inc/stm32f0xx_ll_system.h ****   @endverbatim
  18:Drivers/STM32F0xx_HAL_Driver/Inc/stm32f0xx_ll_system.h ****   ******************************************************************************
  19:Drivers/STM32F0xx_HAL_Driver/Inc/stm32f0xx_ll_system.h ****   * @attention
  20:Drivers/STM32F0xx_HAL_Driver/Inc/stm32f0xx_ll_system.h ****   *
  21:Drivers/STM32F0xx_HAL_Driver/Inc/stm32f0xx_ll_system.h ****   * Copyright (c) 2016 STMicroelectronics.
  22:Drivers/STM32F0xx_HAL_Driver/Inc/stm32f0xx_ll_system.h ****   * All rights reserved.
  23:Drivers/STM32F0xx_HAL_Driver/Inc/stm32f0xx_ll_system.h ****   *
  24:Drivers/STM32F0xx_HAL_Driver/Inc/stm32f0xx_ll_system.h ****   * This software is licensed under terms that can be found in the LICENSE file
  25:Drivers/STM32F0xx_HAL_Driver/Inc/stm32f0xx_ll_system.h ****   * in the root directory of this software component.
  26:Drivers/STM32F0xx_HAL_Driver/Inc/stm32f0xx_ll_system.h ****   * If no LICENSE file comes with this software, it is provided AS-IS.
ARM GAS  /var/folders/zf/mkqpy7tx7p1_khjt1h6hykn40000gn/T//ccF4YHcI.s 			page 33


  27:Drivers/STM32F0xx_HAL_Driver/Inc/stm32f0xx_ll_system.h ****   *
  28:Drivers/STM32F0xx_HAL_Driver/Inc/stm32f0xx_ll_system.h ****   ******************************************************************************
  29:Drivers/STM32F0xx_HAL_Driver/Inc/stm32f0xx_ll_system.h ****   */
  30:Drivers/STM32F0xx_HAL_Driver/Inc/stm32f0xx_ll_system.h **** 
  31:Drivers/STM32F0xx_HAL_Driver/Inc/stm32f0xx_ll_system.h **** /* Define to prevent recursive inclusion -------------------------------------*/
  32:Drivers/STM32F0xx_HAL_Driver/Inc/stm32f0xx_ll_system.h **** #ifndef __STM32F0xx_LL_SYSTEM_H
  33:Drivers/STM32F0xx_HAL_Driver/Inc/stm32f0xx_ll_system.h **** #define __STM32F0xx_LL_SYSTEM_H
  34:Drivers/STM32F0xx_HAL_Driver/Inc/stm32f0xx_ll_system.h **** 
  35:Drivers/STM32F0xx_HAL_Driver/Inc/stm32f0xx_ll_system.h **** #ifdef __cplusplus
  36:Drivers/STM32F0xx_HAL_Driver/Inc/stm32f0xx_ll_system.h **** extern "C" {
  37:Drivers/STM32F0xx_HAL_Driver/Inc/stm32f0xx_ll_system.h **** #endif
  38:Drivers/STM32F0xx_HAL_Driver/Inc/stm32f0xx_ll_system.h **** 
  39:Drivers/STM32F0xx_HAL_Driver/Inc/stm32f0xx_ll_system.h **** /* Includes ------------------------------------------------------------------*/
  40:Drivers/STM32F0xx_HAL_Driver/Inc/stm32f0xx_ll_system.h **** #include "stm32f0xx.h"
  41:Drivers/STM32F0xx_HAL_Driver/Inc/stm32f0xx_ll_system.h **** 
  42:Drivers/STM32F0xx_HAL_Driver/Inc/stm32f0xx_ll_system.h **** /** @addtogroup STM32F0xx_LL_Driver
  43:Drivers/STM32F0xx_HAL_Driver/Inc/stm32f0xx_ll_system.h ****   * @{
  44:Drivers/STM32F0xx_HAL_Driver/Inc/stm32f0xx_ll_system.h ****   */
  45:Drivers/STM32F0xx_HAL_Driver/Inc/stm32f0xx_ll_system.h **** 
  46:Drivers/STM32F0xx_HAL_Driver/Inc/stm32f0xx_ll_system.h **** #if defined (FLASH) || defined (SYSCFG) || defined (DBGMCU)
  47:Drivers/STM32F0xx_HAL_Driver/Inc/stm32f0xx_ll_system.h **** 
  48:Drivers/STM32F0xx_HAL_Driver/Inc/stm32f0xx_ll_system.h **** /** @defgroup SYSTEM_LL SYSTEM
  49:Drivers/STM32F0xx_HAL_Driver/Inc/stm32f0xx_ll_system.h ****   * @{
  50:Drivers/STM32F0xx_HAL_Driver/Inc/stm32f0xx_ll_system.h ****   */
  51:Drivers/STM32F0xx_HAL_Driver/Inc/stm32f0xx_ll_system.h **** 
  52:Drivers/STM32F0xx_HAL_Driver/Inc/stm32f0xx_ll_system.h **** /* Private types -------------------------------------------------------------*/
  53:Drivers/STM32F0xx_HAL_Driver/Inc/stm32f0xx_ll_system.h **** /* Private variables ---------------------------------------------------------*/
  54:Drivers/STM32F0xx_HAL_Driver/Inc/stm32f0xx_ll_system.h **** 
  55:Drivers/STM32F0xx_HAL_Driver/Inc/stm32f0xx_ll_system.h **** /* Private constants ---------------------------------------------------------*/
  56:Drivers/STM32F0xx_HAL_Driver/Inc/stm32f0xx_ll_system.h **** /** @defgroup SYSTEM_LL_Private_Constants SYSTEM Private Constants
  57:Drivers/STM32F0xx_HAL_Driver/Inc/stm32f0xx_ll_system.h ****   * @{
  58:Drivers/STM32F0xx_HAL_Driver/Inc/stm32f0xx_ll_system.h ****   */
  59:Drivers/STM32F0xx_HAL_Driver/Inc/stm32f0xx_ll_system.h **** 
  60:Drivers/STM32F0xx_HAL_Driver/Inc/stm32f0xx_ll_system.h **** /**
  61:Drivers/STM32F0xx_HAL_Driver/Inc/stm32f0xx_ll_system.h ****   * @}
  62:Drivers/STM32F0xx_HAL_Driver/Inc/stm32f0xx_ll_system.h ****   */
  63:Drivers/STM32F0xx_HAL_Driver/Inc/stm32f0xx_ll_system.h **** 
  64:Drivers/STM32F0xx_HAL_Driver/Inc/stm32f0xx_ll_system.h **** /* Private macros ------------------------------------------------------------*/
  65:Drivers/STM32F0xx_HAL_Driver/Inc/stm32f0xx_ll_system.h **** 
  66:Drivers/STM32F0xx_HAL_Driver/Inc/stm32f0xx_ll_system.h **** /* Exported types ------------------------------------------------------------*/
  67:Drivers/STM32F0xx_HAL_Driver/Inc/stm32f0xx_ll_system.h **** /* Exported constants --------------------------------------------------------*/
  68:Drivers/STM32F0xx_HAL_Driver/Inc/stm32f0xx_ll_system.h **** /** @defgroup SYSTEM_LL_Exported_Constants SYSTEM Exported Constants
  69:Drivers/STM32F0xx_HAL_Driver/Inc/stm32f0xx_ll_system.h ****   * @{
  70:Drivers/STM32F0xx_HAL_Driver/Inc/stm32f0xx_ll_system.h ****   */
  71:Drivers/STM32F0xx_HAL_Driver/Inc/stm32f0xx_ll_system.h **** 
  72:Drivers/STM32F0xx_HAL_Driver/Inc/stm32f0xx_ll_system.h **** /** @defgroup SYSTEM_LL_EC_REMAP SYSCFG Remap
  73:Drivers/STM32F0xx_HAL_Driver/Inc/stm32f0xx_ll_system.h **** * @{
  74:Drivers/STM32F0xx_HAL_Driver/Inc/stm32f0xx_ll_system.h **** */
  75:Drivers/STM32F0xx_HAL_Driver/Inc/stm32f0xx_ll_system.h **** #define LL_SYSCFG_REMAP_FLASH              (uint32_t)0x00000000U                               /*!<
  76:Drivers/STM32F0xx_HAL_Driver/Inc/stm32f0xx_ll_system.h **** #define LL_SYSCFG_REMAP_SYSTEMFLASH        SYSCFG_CFGR1_MEM_MODE_0                             /*!<
  77:Drivers/STM32F0xx_HAL_Driver/Inc/stm32f0xx_ll_system.h **** #define LL_SYSCFG_REMAP_SRAM               (SYSCFG_CFGR1_MEM_MODE_1 | SYSCFG_CFGR1_MEM_MODE_0) /*!<
  78:Drivers/STM32F0xx_HAL_Driver/Inc/stm32f0xx_ll_system.h **** /**
  79:Drivers/STM32F0xx_HAL_Driver/Inc/stm32f0xx_ll_system.h ****   * @}
  80:Drivers/STM32F0xx_HAL_Driver/Inc/stm32f0xx_ll_system.h ****   */
  81:Drivers/STM32F0xx_HAL_Driver/Inc/stm32f0xx_ll_system.h **** 
  82:Drivers/STM32F0xx_HAL_Driver/Inc/stm32f0xx_ll_system.h **** #if defined(SYSCFG_CFGR1_IR_MOD)
  83:Drivers/STM32F0xx_HAL_Driver/Inc/stm32f0xx_ll_system.h **** /** @defgroup SYSTEM_LL_EC_IR_MOD SYSCFG IR Modulation
ARM GAS  /var/folders/zf/mkqpy7tx7p1_khjt1h6hykn40000gn/T//ccF4YHcI.s 			page 34


  84:Drivers/STM32F0xx_HAL_Driver/Inc/stm32f0xx_ll_system.h ****   * @{
  85:Drivers/STM32F0xx_HAL_Driver/Inc/stm32f0xx_ll_system.h ****   */
  86:Drivers/STM32F0xx_HAL_Driver/Inc/stm32f0xx_ll_system.h **** #define LL_SYSCFG_IR_MOD_TIM16       (SYSCFG_CFGR1_IR_MOD_0 & SYSCFG_CFGR1_IR_MOD_1)    /*!< Timer1
  87:Drivers/STM32F0xx_HAL_Driver/Inc/stm32f0xx_ll_system.h **** #define LL_SYSCFG_IR_MOD_USART1      (SYSCFG_CFGR1_IR_MOD_0)                            /*!< USART1
  88:Drivers/STM32F0xx_HAL_Driver/Inc/stm32f0xx_ll_system.h **** #define LL_SYSCFG_IR_MOD_USART4      (SYSCFG_CFGR1_IR_MOD_1)                            /*!< USART4
  89:Drivers/STM32F0xx_HAL_Driver/Inc/stm32f0xx_ll_system.h **** /**
  90:Drivers/STM32F0xx_HAL_Driver/Inc/stm32f0xx_ll_system.h ****   * @}
  91:Drivers/STM32F0xx_HAL_Driver/Inc/stm32f0xx_ll_system.h ****   */
  92:Drivers/STM32F0xx_HAL_Driver/Inc/stm32f0xx_ll_system.h **** 
  93:Drivers/STM32F0xx_HAL_Driver/Inc/stm32f0xx_ll_system.h **** #endif /* SYSCFG_CFGR1_IR_MOD */
  94:Drivers/STM32F0xx_HAL_Driver/Inc/stm32f0xx_ll_system.h **** 
  95:Drivers/STM32F0xx_HAL_Driver/Inc/stm32f0xx_ll_system.h **** #if defined(SYSCFG_CFGR1_USART1TX_DMA_RMP) || defined(SYSCFG_CFGR1_USART1RX_DMA_RMP) || defined(SYS
  96:Drivers/STM32F0xx_HAL_Driver/Inc/stm32f0xx_ll_system.h **** /** @defgroup SYSTEM_LL_EC_USART1TX_RMP SYSCFG USART DMA Remap
  97:Drivers/STM32F0xx_HAL_Driver/Inc/stm32f0xx_ll_system.h ****   * @{
  98:Drivers/STM32F0xx_HAL_Driver/Inc/stm32f0xx_ll_system.h ****   */
  99:Drivers/STM32F0xx_HAL_Driver/Inc/stm32f0xx_ll_system.h **** #if defined (SYSCFG_CFGR1_USART1TX_DMA_RMP)
 100:Drivers/STM32F0xx_HAL_Driver/Inc/stm32f0xx_ll_system.h **** #define LL_SYSCFG_USART1TX_RMP_DMA1CH2     ((SYSCFG_CFGR1_USART1TX_DMA_RMP >> 8U) | (uint32_t)0x000
 101:Drivers/STM32F0xx_HAL_Driver/Inc/stm32f0xx_ll_system.h **** #define LL_SYSCFG_USART1TX_RMP_DMA1CH4     ((SYSCFG_CFGR1_USART1TX_DMA_RMP >> 8U) | SYSCFG_CFGR1_US
 102:Drivers/STM32F0xx_HAL_Driver/Inc/stm32f0xx_ll_system.h **** #endif /*SYSCFG_CFGR1_USART1TX_DMA_RMP*/
 103:Drivers/STM32F0xx_HAL_Driver/Inc/stm32f0xx_ll_system.h **** #if defined (SYSCFG_CFGR1_USART1RX_DMA_RMP)
 104:Drivers/STM32F0xx_HAL_Driver/Inc/stm32f0xx_ll_system.h **** #define LL_SYSCFG_USART1RX_RMP_DMA1CH3     ((SYSCFG_CFGR1_USART1RX_DMA_RMP >> 8U) | (uint32_t)0x000
 105:Drivers/STM32F0xx_HAL_Driver/Inc/stm32f0xx_ll_system.h **** #define LL_SYSCFG_USART1RX_RMP_DMA1CH5     ((SYSCFG_CFGR1_USART1RX_DMA_RMP >> 8U) | SYSCFG_CFGR1_US
 106:Drivers/STM32F0xx_HAL_Driver/Inc/stm32f0xx_ll_system.h **** #endif /*SYSCFG_CFGR1_USART1RX_DMA_RMP*/
 107:Drivers/STM32F0xx_HAL_Driver/Inc/stm32f0xx_ll_system.h **** #if defined (SYSCFG_CFGR1_USART2_DMA_RMP)
 108:Drivers/STM32F0xx_HAL_Driver/Inc/stm32f0xx_ll_system.h **** #define LL_SYSCFG_USART2_RMP_DMA1CH54      ((SYSCFG_CFGR1_USART2_DMA_RMP >> 8U) | (uint32_t)0x00000
 109:Drivers/STM32F0xx_HAL_Driver/Inc/stm32f0xx_ll_system.h **** #define LL_SYSCFG_USART2_RMP_DMA1CH67      ((SYSCFG_CFGR1_USART2_DMA_RMP >> 8U) | SYSCFG_CFGR1_USAR
 110:Drivers/STM32F0xx_HAL_Driver/Inc/stm32f0xx_ll_system.h **** #endif /*SYSCFG_CFGR1_USART2_DMA_RMP*/
 111:Drivers/STM32F0xx_HAL_Driver/Inc/stm32f0xx_ll_system.h **** #if defined (SYSCFG_CFGR1_USART3_DMA_RMP)
 112:Drivers/STM32F0xx_HAL_Driver/Inc/stm32f0xx_ll_system.h **** #define LL_SYSCFG_USART3_RMP_DMA1CH67      ((SYSCFG_CFGR1_USART3_DMA_RMP >> 8U) | (uint32_t)0x00000
 113:Drivers/STM32F0xx_HAL_Driver/Inc/stm32f0xx_ll_system.h **** #define LL_SYSCFG_USART3_RMP_DMA1CH32      ((SYSCFG_CFGR1_USART3_DMA_RMP >> 8U) | SYSCFG_CFGR1_USAR
 114:Drivers/STM32F0xx_HAL_Driver/Inc/stm32f0xx_ll_system.h **** #endif /* SYSCFG_CFGR1_USART3_DMA_RMP */
 115:Drivers/STM32F0xx_HAL_Driver/Inc/stm32f0xx_ll_system.h **** /**
 116:Drivers/STM32F0xx_HAL_Driver/Inc/stm32f0xx_ll_system.h ****   * @}
 117:Drivers/STM32F0xx_HAL_Driver/Inc/stm32f0xx_ll_system.h ****   */
 118:Drivers/STM32F0xx_HAL_Driver/Inc/stm32f0xx_ll_system.h **** #endif /* SYSCFG_CFGR1_USART1TX_DMA_RMP || SYSCFG_CFGR1_USART1RX_DMA_RMP || SYSCFG_CFGR1_USART2_DMA
 119:Drivers/STM32F0xx_HAL_Driver/Inc/stm32f0xx_ll_system.h **** 
 120:Drivers/STM32F0xx_HAL_Driver/Inc/stm32f0xx_ll_system.h **** #if defined (SYSCFG_CFGR1_SPI2_DMA_RMP)
 121:Drivers/STM32F0xx_HAL_Driver/Inc/stm32f0xx_ll_system.h **** /** @defgroup SYSTEM_LL_EC_SPI2_RMP_DMA1 SYSCFG SPI2 DMA Remap
 122:Drivers/STM32F0xx_HAL_Driver/Inc/stm32f0xx_ll_system.h ****   * @{
 123:Drivers/STM32F0xx_HAL_Driver/Inc/stm32f0xx_ll_system.h ****   */
 124:Drivers/STM32F0xx_HAL_Driver/Inc/stm32f0xx_ll_system.h **** #define LL_SYSCFG_SPI2_RMP_DMA1_CH45       (uint32_t)0x00000000U      /*!< SPI2_RX and SPI2_TX DMA 
 125:Drivers/STM32F0xx_HAL_Driver/Inc/stm32f0xx_ll_system.h **** #define LL_SYSCFG_SPI2_RMP_DMA1_CH67       SYSCFG_CFGR1_SPI2_DMA_RMP  /*!< SPI2_RX and SPI2_TX DMA 
 126:Drivers/STM32F0xx_HAL_Driver/Inc/stm32f0xx_ll_system.h **** /**
 127:Drivers/STM32F0xx_HAL_Driver/Inc/stm32f0xx_ll_system.h ****   * @}
 128:Drivers/STM32F0xx_HAL_Driver/Inc/stm32f0xx_ll_system.h ****   */
 129:Drivers/STM32F0xx_HAL_Driver/Inc/stm32f0xx_ll_system.h **** 
 130:Drivers/STM32F0xx_HAL_Driver/Inc/stm32f0xx_ll_system.h **** #endif /*SYSCFG_CFGR1_SPI2_DMA_RMP*/
 131:Drivers/STM32F0xx_HAL_Driver/Inc/stm32f0xx_ll_system.h **** 
 132:Drivers/STM32F0xx_HAL_Driver/Inc/stm32f0xx_ll_system.h **** #if defined (SYSCFG_CFGR1_I2C1_DMA_RMP)
 133:Drivers/STM32F0xx_HAL_Driver/Inc/stm32f0xx_ll_system.h **** /** @defgroup SYSTEM_LL_EC_I2C1_RMP_DMA1 SYSCFG I2C1 DMA Remap
 134:Drivers/STM32F0xx_HAL_Driver/Inc/stm32f0xx_ll_system.h ****   * @{
 135:Drivers/STM32F0xx_HAL_Driver/Inc/stm32f0xx_ll_system.h ****   */
 136:Drivers/STM32F0xx_HAL_Driver/Inc/stm32f0xx_ll_system.h **** #define LL_SYSCFG_I2C1_RMP_DMA1_CH32       (uint32_t)0x00000000U      /*!< I2C1_RX and I2C1_TX DMA 
 137:Drivers/STM32F0xx_HAL_Driver/Inc/stm32f0xx_ll_system.h **** #define LL_SYSCFG_I2C1_RMP_DMA1_CH76       SYSCFG_CFGR1_I2C1_DMA_RMP  /*!< I2C1_RX and I2C1_TX DMA 
 138:Drivers/STM32F0xx_HAL_Driver/Inc/stm32f0xx_ll_system.h **** /**
 139:Drivers/STM32F0xx_HAL_Driver/Inc/stm32f0xx_ll_system.h ****   * @}
 140:Drivers/STM32F0xx_HAL_Driver/Inc/stm32f0xx_ll_system.h ****   */
ARM GAS  /var/folders/zf/mkqpy7tx7p1_khjt1h6hykn40000gn/T//ccF4YHcI.s 			page 35


 141:Drivers/STM32F0xx_HAL_Driver/Inc/stm32f0xx_ll_system.h **** 
 142:Drivers/STM32F0xx_HAL_Driver/Inc/stm32f0xx_ll_system.h **** #endif /*SYSCFG_CFGR1_I2C1_DMA_RMP*/
 143:Drivers/STM32F0xx_HAL_Driver/Inc/stm32f0xx_ll_system.h **** 
 144:Drivers/STM32F0xx_HAL_Driver/Inc/stm32f0xx_ll_system.h **** #if defined(SYSCFG_CFGR1_ADC_DMA_RMP)
 145:Drivers/STM32F0xx_HAL_Driver/Inc/stm32f0xx_ll_system.h **** /** @defgroup SYSTEM_LL_EC_ADC1_RMP_DMA1 SYSCFG ADC1 DMA Remap
 146:Drivers/STM32F0xx_HAL_Driver/Inc/stm32f0xx_ll_system.h ****   * @{
 147:Drivers/STM32F0xx_HAL_Driver/Inc/stm32f0xx_ll_system.h ****   */
 148:Drivers/STM32F0xx_HAL_Driver/Inc/stm32f0xx_ll_system.h **** #define LL_SYSCFG_ADC1_RMP_DMA1_CH1        (uint32_t)0x00000000U     /*!< ADC DMA request mapped on
 149:Drivers/STM32F0xx_HAL_Driver/Inc/stm32f0xx_ll_system.h **** #define LL_SYSCFG_ADC1_RMP_DMA1_CH2        SYSCFG_CFGR1_ADC_DMA_RMP  /*!< ADC DMA request mapped on
 150:Drivers/STM32F0xx_HAL_Driver/Inc/stm32f0xx_ll_system.h **** /**
 151:Drivers/STM32F0xx_HAL_Driver/Inc/stm32f0xx_ll_system.h ****   * @}
 152:Drivers/STM32F0xx_HAL_Driver/Inc/stm32f0xx_ll_system.h ****   */
 153:Drivers/STM32F0xx_HAL_Driver/Inc/stm32f0xx_ll_system.h **** 
 154:Drivers/STM32F0xx_HAL_Driver/Inc/stm32f0xx_ll_system.h **** #endif /* SYSCFG_CFGR1_ADC_DMA_RMP */
 155:Drivers/STM32F0xx_HAL_Driver/Inc/stm32f0xx_ll_system.h **** 
 156:Drivers/STM32F0xx_HAL_Driver/Inc/stm32f0xx_ll_system.h **** #if defined(SYSCFG_CFGR1_TIM16_DMA_RMP) || defined(SYSCFG_CFGR1_TIM17_DMA_RMP) || defined(SYSCFG_CF
 157:Drivers/STM32F0xx_HAL_Driver/Inc/stm32f0xx_ll_system.h **** /** @defgroup SYSTEM_LL_EC_TIM16_RMP_DMA1 SYSCFG TIM DMA Remap
 158:Drivers/STM32F0xx_HAL_Driver/Inc/stm32f0xx_ll_system.h ****   * @{
 159:Drivers/STM32F0xx_HAL_Driver/Inc/stm32f0xx_ll_system.h ****   */
 160:Drivers/STM32F0xx_HAL_Driver/Inc/stm32f0xx_ll_system.h **** #if defined(SYSCFG_CFGR1_TIM16_DMA_RMP)
 161:Drivers/STM32F0xx_HAL_Driver/Inc/stm32f0xx_ll_system.h **** #if defined (SYSCFG_CFGR1_TIM16_DMA_RMP2)
 162:Drivers/STM32F0xx_HAL_Driver/Inc/stm32f0xx_ll_system.h **** #define LL_SYSCFG_TIM16_RMP_DMA1_CH3       (((SYSCFG_CFGR1_TIM16_DMA_RMP | SYSCFG_CFGR1_TIM16_DMA_R
 163:Drivers/STM32F0xx_HAL_Driver/Inc/stm32f0xx_ll_system.h **** #define LL_SYSCFG_TIM16_RMP_DMA1_CH4       (((SYSCFG_CFGR1_TIM16_DMA_RMP | SYSCFG_CFGR1_TIM16_DMA_R
 164:Drivers/STM32F0xx_HAL_Driver/Inc/stm32f0xx_ll_system.h **** #define LL_SYSCFG_TIM16_RMP_DMA1_CH6       ((SYSCFG_CFGR1_TIM16_DMA_RMP2 >> 8U) | SYSCFG_CFGR1_TIM1
 165:Drivers/STM32F0xx_HAL_Driver/Inc/stm32f0xx_ll_system.h **** #else
 166:Drivers/STM32F0xx_HAL_Driver/Inc/stm32f0xx_ll_system.h **** #define LL_SYSCFG_TIM16_RMP_DMA1_CH3       ((SYSCFG_CFGR1_TIM16_DMA_RMP >> 8U) | (uint32_t)0x000000
 167:Drivers/STM32F0xx_HAL_Driver/Inc/stm32f0xx_ll_system.h **** #define LL_SYSCFG_TIM16_RMP_DMA1_CH4       ((SYSCFG_CFGR1_TIM16_DMA_RMP >> 8U) | SYSCFG_CFGR1_TIM16
 168:Drivers/STM32F0xx_HAL_Driver/Inc/stm32f0xx_ll_system.h **** #endif /* SYSCFG_CFGR1_TIM16_DMA_RMP2 */
 169:Drivers/STM32F0xx_HAL_Driver/Inc/stm32f0xx_ll_system.h **** #endif /* SYSCFG_CFGR1_TIM16_DMA_RMP */
 170:Drivers/STM32F0xx_HAL_Driver/Inc/stm32f0xx_ll_system.h **** #if defined(SYSCFG_CFGR1_TIM17_DMA_RMP)
 171:Drivers/STM32F0xx_HAL_Driver/Inc/stm32f0xx_ll_system.h **** #if defined (SYSCFG_CFGR1_TIM17_DMA_RMP2)
 172:Drivers/STM32F0xx_HAL_Driver/Inc/stm32f0xx_ll_system.h **** #define LL_SYSCFG_TIM17_RMP_DMA1_CH1       (((SYSCFG_CFGR1_TIM17_DMA_RMP | SYSCFG_CFGR1_TIM17_DMA_R
 173:Drivers/STM32F0xx_HAL_Driver/Inc/stm32f0xx_ll_system.h **** #define LL_SYSCFG_TIM17_RMP_DMA1_CH2       (((SYSCFG_CFGR1_TIM17_DMA_RMP | SYSCFG_CFGR1_TIM17_DMA_R
 174:Drivers/STM32F0xx_HAL_Driver/Inc/stm32f0xx_ll_system.h **** #define LL_SYSCFG_TIM17_RMP_DMA1_CH7       ((SYSCFG_CFGR1_TIM17_DMA_RMP2 >> 8U) | SYSCFG_CFGR1_TIM1
 175:Drivers/STM32F0xx_HAL_Driver/Inc/stm32f0xx_ll_system.h **** #else
 176:Drivers/STM32F0xx_HAL_Driver/Inc/stm32f0xx_ll_system.h **** #define LL_SYSCFG_TIM17_RMP_DMA1_CH1       ((SYSCFG_CFGR1_TIM17_DMA_RMP >> 8U) | (uint32_t)0x000000
 177:Drivers/STM32F0xx_HAL_Driver/Inc/stm32f0xx_ll_system.h **** #define LL_SYSCFG_TIM17_RMP_DMA1_CH2       ((SYSCFG_CFGR1_TIM17_DMA_RMP >> 8U) | SYSCFG_CFGR1_TIM17
 178:Drivers/STM32F0xx_HAL_Driver/Inc/stm32f0xx_ll_system.h **** #endif /* SYSCFG_CFGR1_TIM17_DMA_RMP2 */
 179:Drivers/STM32F0xx_HAL_Driver/Inc/stm32f0xx_ll_system.h **** #endif /* SYSCFG_CFGR1_TIM17_DMA_RMP */
 180:Drivers/STM32F0xx_HAL_Driver/Inc/stm32f0xx_ll_system.h **** #if defined (SYSCFG_CFGR1_TIM1_DMA_RMP)
 181:Drivers/STM32F0xx_HAL_Driver/Inc/stm32f0xx_ll_system.h **** #define LL_SYSCFG_TIM1_RMP_DMA1_CH234      ((SYSCFG_CFGR1_TIM1_DMA_RMP >> 8U) | (uint32_t)0x0000000
 182:Drivers/STM32F0xx_HAL_Driver/Inc/stm32f0xx_ll_system.h **** #define LL_SYSCFG_TIM1_RMP_DMA1_CH6        ((SYSCFG_CFGR1_TIM1_DMA_RMP >> 8U) | SYSCFG_CFGR1_TIM1_D
 183:Drivers/STM32F0xx_HAL_Driver/Inc/stm32f0xx_ll_system.h **** #endif /*SYSCFG_CFGR1_TIM1_DMA_RMP*/
 184:Drivers/STM32F0xx_HAL_Driver/Inc/stm32f0xx_ll_system.h **** #if defined (SYSCFG_CFGR1_TIM2_DMA_RMP)
 185:Drivers/STM32F0xx_HAL_Driver/Inc/stm32f0xx_ll_system.h **** #define LL_SYSCFG_TIM2_RMP_DMA1_CH34       ((SYSCFG_CFGR1_TIM2_DMA_RMP >> 8U) | (uint32_t)0x0000000
 186:Drivers/STM32F0xx_HAL_Driver/Inc/stm32f0xx_ll_system.h **** #define LL_SYSCFG_TIM2_RMP_DMA1_CH7        ((SYSCFG_CFGR1_TIM2_DMA_RMP >> 8U) | SYSCFG_CFGR1_TIM2_D
 187:Drivers/STM32F0xx_HAL_Driver/Inc/stm32f0xx_ll_system.h **** #endif /*SYSCFG_CFGR1_TIM2_DMA_RMP*/
 188:Drivers/STM32F0xx_HAL_Driver/Inc/stm32f0xx_ll_system.h **** #if defined (SYSCFG_CFGR1_TIM3_DMA_RMP)
 189:Drivers/STM32F0xx_HAL_Driver/Inc/stm32f0xx_ll_system.h **** #define LL_SYSCFG_TIM3_RMP_DMA1_CH4        ((SYSCFG_CFGR1_TIM3_DMA_RMP >> 8U) | (uint32_t)0x0000000
 190:Drivers/STM32F0xx_HAL_Driver/Inc/stm32f0xx_ll_system.h **** #define LL_SYSCFG_TIM3_RMP_DMA1_CH6        ((SYSCFG_CFGR1_TIM3_DMA_RMP >> 8U) | SYSCFG_CFGR1_TIM3_D
 191:Drivers/STM32F0xx_HAL_Driver/Inc/stm32f0xx_ll_system.h **** #endif /*SYSCFG_CFGR1_TIM3_DMA_RMP*/
 192:Drivers/STM32F0xx_HAL_Driver/Inc/stm32f0xx_ll_system.h **** /**
 193:Drivers/STM32F0xx_HAL_Driver/Inc/stm32f0xx_ll_system.h ****   * @}
 194:Drivers/STM32F0xx_HAL_Driver/Inc/stm32f0xx_ll_system.h ****   */
 195:Drivers/STM32F0xx_HAL_Driver/Inc/stm32f0xx_ll_system.h **** 
 196:Drivers/STM32F0xx_HAL_Driver/Inc/stm32f0xx_ll_system.h **** #endif /* SYSCFG_CFGR1_TIM16_DMA_RMP || SYSCFG_CFGR1_TIM17_DMA_RMP || SYSCFG_CFGR1_TIM1_DMA_RMP || 
 197:Drivers/STM32F0xx_HAL_Driver/Inc/stm32f0xx_ll_system.h **** 
ARM GAS  /var/folders/zf/mkqpy7tx7p1_khjt1h6hykn40000gn/T//ccF4YHcI.s 			page 36


 198:Drivers/STM32F0xx_HAL_Driver/Inc/stm32f0xx_ll_system.h **** /** @defgroup SYSTEM_LL_EC_I2C_FASTMODEPLUS SYSCFG I2C FASTMODEPLUS
 199:Drivers/STM32F0xx_HAL_Driver/Inc/stm32f0xx_ll_system.h ****   * @{
 200:Drivers/STM32F0xx_HAL_Driver/Inc/stm32f0xx_ll_system.h ****   */
 201:Drivers/STM32F0xx_HAL_Driver/Inc/stm32f0xx_ll_system.h **** #define LL_SYSCFG_I2C_FASTMODEPLUS_PB6     SYSCFG_CFGR1_I2C_FMP_PB6  /*!< I2C PB6 Fast mode plus */
 202:Drivers/STM32F0xx_HAL_Driver/Inc/stm32f0xx_ll_system.h **** #define LL_SYSCFG_I2C_FASTMODEPLUS_PB7     SYSCFG_CFGR1_I2C_FMP_PB7  /*!< I2C PB7 Fast mode plus */
 203:Drivers/STM32F0xx_HAL_Driver/Inc/stm32f0xx_ll_system.h **** #define LL_SYSCFG_I2C_FASTMODEPLUS_PB8     SYSCFG_CFGR1_I2C_FMP_PB8  /*!< I2C PB8 Fast mode plus */
 204:Drivers/STM32F0xx_HAL_Driver/Inc/stm32f0xx_ll_system.h **** #define LL_SYSCFG_I2C_FASTMODEPLUS_PB9     SYSCFG_CFGR1_I2C_FMP_PB9  /*!< I2C PB9 Fast mode plus */
 205:Drivers/STM32F0xx_HAL_Driver/Inc/stm32f0xx_ll_system.h **** #if defined(SYSCFG_CFGR1_I2C_FMP_I2C1)
 206:Drivers/STM32F0xx_HAL_Driver/Inc/stm32f0xx_ll_system.h **** #define LL_SYSCFG_I2C_FASTMODEPLUS_I2C1    SYSCFG_CFGR1_I2C_FMP_I2C1 /*!< Enable Fast Mode Plus on 
 207:Drivers/STM32F0xx_HAL_Driver/Inc/stm32f0xx_ll_system.h **** #endif /*SYSCFG_CFGR1_I2C_FMP_I2C1*/
 208:Drivers/STM32F0xx_HAL_Driver/Inc/stm32f0xx_ll_system.h **** #if defined(SYSCFG_CFGR1_I2C_FMP_I2C2)
 209:Drivers/STM32F0xx_HAL_Driver/Inc/stm32f0xx_ll_system.h **** #define LL_SYSCFG_I2C_FASTMODEPLUS_I2C2    SYSCFG_CFGR1_I2C_FMP_I2C2 /*!< Enable I2C2 Fast mode plu
 210:Drivers/STM32F0xx_HAL_Driver/Inc/stm32f0xx_ll_system.h **** #endif /*SYSCFG_CFGR1_I2C_FMP_I2C2*/
 211:Drivers/STM32F0xx_HAL_Driver/Inc/stm32f0xx_ll_system.h **** #if defined(SYSCFG_CFGR1_I2C_FMP_PA9)
 212:Drivers/STM32F0xx_HAL_Driver/Inc/stm32f0xx_ll_system.h **** #define LL_SYSCFG_I2C_FASTMODEPLUS_PA9     SYSCFG_CFGR1_I2C_FMP_PA9 /*!< Enable Fast Mode Plus on P
 213:Drivers/STM32F0xx_HAL_Driver/Inc/stm32f0xx_ll_system.h **** #endif /*SYSCFG_CFGR1_I2C_FMP_PA9*/
 214:Drivers/STM32F0xx_HAL_Driver/Inc/stm32f0xx_ll_system.h **** #if defined(SYSCFG_CFGR1_I2C_FMP_PA10)
 215:Drivers/STM32F0xx_HAL_Driver/Inc/stm32f0xx_ll_system.h **** #define LL_SYSCFG_I2C_FASTMODEPLUS_PA10    SYSCFG_CFGR1_I2C_FMP_PA10 /*!< Enable Fast Mode Plus on 
 216:Drivers/STM32F0xx_HAL_Driver/Inc/stm32f0xx_ll_system.h **** #endif /*SYSCFG_CFGR1_I2C_FMP_PA10*/
 217:Drivers/STM32F0xx_HAL_Driver/Inc/stm32f0xx_ll_system.h **** /**
 218:Drivers/STM32F0xx_HAL_Driver/Inc/stm32f0xx_ll_system.h ****   * @}
 219:Drivers/STM32F0xx_HAL_Driver/Inc/stm32f0xx_ll_system.h ****   */
 220:Drivers/STM32F0xx_HAL_Driver/Inc/stm32f0xx_ll_system.h **** 
 221:Drivers/STM32F0xx_HAL_Driver/Inc/stm32f0xx_ll_system.h **** /** @defgroup SYSTEM_LL_EC_EXTI_PORT SYSCFG EXTI PORT
 222:Drivers/STM32F0xx_HAL_Driver/Inc/stm32f0xx_ll_system.h ****   * @{
 223:Drivers/STM32F0xx_HAL_Driver/Inc/stm32f0xx_ll_system.h ****   */
 224:Drivers/STM32F0xx_HAL_Driver/Inc/stm32f0xx_ll_system.h **** #define LL_SYSCFG_EXTI_PORTA               (uint32_t)0U               /*!< EXTI PORT A */
 225:Drivers/STM32F0xx_HAL_Driver/Inc/stm32f0xx_ll_system.h **** #define LL_SYSCFG_EXTI_PORTB               (uint32_t)1U               /*!< EXTI PORT B */
 226:Drivers/STM32F0xx_HAL_Driver/Inc/stm32f0xx_ll_system.h **** #define LL_SYSCFG_EXTI_PORTC               (uint32_t)2U               /*!< EXTI PORT C */
 227:Drivers/STM32F0xx_HAL_Driver/Inc/stm32f0xx_ll_system.h **** #if defined(GPIOD_BASE)
 228:Drivers/STM32F0xx_HAL_Driver/Inc/stm32f0xx_ll_system.h **** #define LL_SYSCFG_EXTI_PORTD               (uint32_t)3U               /*!< EXTI PORT D */
 229:Drivers/STM32F0xx_HAL_Driver/Inc/stm32f0xx_ll_system.h **** #endif /*GPIOD_BASE*/
 230:Drivers/STM32F0xx_HAL_Driver/Inc/stm32f0xx_ll_system.h **** #if defined(GPIOE_BASE)
 231:Drivers/STM32F0xx_HAL_Driver/Inc/stm32f0xx_ll_system.h **** #define LL_SYSCFG_EXTI_PORTE               (uint32_t)4U               /*!< EXTI PORT E */
 232:Drivers/STM32F0xx_HAL_Driver/Inc/stm32f0xx_ll_system.h **** #endif /*GPIOE_BASE*/
 233:Drivers/STM32F0xx_HAL_Driver/Inc/stm32f0xx_ll_system.h **** #define LL_SYSCFG_EXTI_PORTF               (uint32_t)5U               /*!< EXTI PORT F */
 234:Drivers/STM32F0xx_HAL_Driver/Inc/stm32f0xx_ll_system.h **** /**
 235:Drivers/STM32F0xx_HAL_Driver/Inc/stm32f0xx_ll_system.h ****   * @}
 236:Drivers/STM32F0xx_HAL_Driver/Inc/stm32f0xx_ll_system.h ****   */
 237:Drivers/STM32F0xx_HAL_Driver/Inc/stm32f0xx_ll_system.h **** 
 238:Drivers/STM32F0xx_HAL_Driver/Inc/stm32f0xx_ll_system.h **** /** @defgroup SYSTEM_LL_EC_EXTI_LINE SYSCFG EXTI LINE
 239:Drivers/STM32F0xx_HAL_Driver/Inc/stm32f0xx_ll_system.h ****   * @{
 240:Drivers/STM32F0xx_HAL_Driver/Inc/stm32f0xx_ll_system.h ****   */
 241:Drivers/STM32F0xx_HAL_Driver/Inc/stm32f0xx_ll_system.h **** #define LL_SYSCFG_EXTI_LINE0               (uint32_t)(0U << 16U | 0U)  /*!< EXTI_POSITION_0  | EXTI
 242:Drivers/STM32F0xx_HAL_Driver/Inc/stm32f0xx_ll_system.h **** #define LL_SYSCFG_EXTI_LINE1               (uint32_t)(4U << 16U | 0U)  /*!< EXTI_POSITION_4  | EXTI
 243:Drivers/STM32F0xx_HAL_Driver/Inc/stm32f0xx_ll_system.h **** #define LL_SYSCFG_EXTI_LINE2               (uint32_t)(8U << 16U | 0U)  /*!< EXTI_POSITION_8  | EXTI
 244:Drivers/STM32F0xx_HAL_Driver/Inc/stm32f0xx_ll_system.h **** #define LL_SYSCFG_EXTI_LINE3               (uint32_t)(12U << 16U | 0U) /*!< EXTI_POSITION_12 | EXTI
 245:Drivers/STM32F0xx_HAL_Driver/Inc/stm32f0xx_ll_system.h **** #define LL_SYSCFG_EXTI_LINE4               (uint32_t)(0U << 16U | 1U)  /*!< EXTI_POSITION_0  | EXTI
 246:Drivers/STM32F0xx_HAL_Driver/Inc/stm32f0xx_ll_system.h **** #define LL_SYSCFG_EXTI_LINE5               (uint32_t)(4U << 16U | 1U)  /*!< EXTI_POSITION_4  | EXTI
 247:Drivers/STM32F0xx_HAL_Driver/Inc/stm32f0xx_ll_system.h **** #define LL_SYSCFG_EXTI_LINE6               (uint32_t)(8U << 16U | 1U)  /*!< EXTI_POSITION_8  | EXTI
 248:Drivers/STM32F0xx_HAL_Driver/Inc/stm32f0xx_ll_system.h **** #define LL_SYSCFG_EXTI_LINE7               (uint32_t)(12U << 16U | 1U) /*!< EXTI_POSITION_12 | EXTI
 249:Drivers/STM32F0xx_HAL_Driver/Inc/stm32f0xx_ll_system.h **** #define LL_SYSCFG_EXTI_LINE8               (uint32_t)(0U << 16U | 2U)  /*!< EXTI_POSITION_0  | EXTI
 250:Drivers/STM32F0xx_HAL_Driver/Inc/stm32f0xx_ll_system.h **** #define LL_SYSCFG_EXTI_LINE9               (uint32_t)(4U << 16U | 2U)  /*!< EXTI_POSITION_4  | EXTI
 251:Drivers/STM32F0xx_HAL_Driver/Inc/stm32f0xx_ll_system.h **** #define LL_SYSCFG_EXTI_LINE10              (uint32_t)(8U << 16U | 2U)  /*!< EXTI_POSITION_8  | EXTI
 252:Drivers/STM32F0xx_HAL_Driver/Inc/stm32f0xx_ll_system.h **** #define LL_SYSCFG_EXTI_LINE11              (uint32_t)(12U << 16U | 2U) /*!< EXTI_POSITION_12 | EXTI
 253:Drivers/STM32F0xx_HAL_Driver/Inc/stm32f0xx_ll_system.h **** #define LL_SYSCFG_EXTI_LINE12              (uint32_t)(0U << 16U | 3U)  /*!< EXTI_POSITION_0  | EXTI
 254:Drivers/STM32F0xx_HAL_Driver/Inc/stm32f0xx_ll_system.h **** #define LL_SYSCFG_EXTI_LINE13              (uint32_t)(4U << 16U | 3U)  /*!< EXTI_POSITION_4  | EXTI
ARM GAS  /var/folders/zf/mkqpy7tx7p1_khjt1h6hykn40000gn/T//ccF4YHcI.s 			page 37


 255:Drivers/STM32F0xx_HAL_Driver/Inc/stm32f0xx_ll_system.h **** #define LL_SYSCFG_EXTI_LINE14              (uint32_t)(8U << 16U | 3U)  /*!< EXTI_POSITION_8  | EXTI
 256:Drivers/STM32F0xx_HAL_Driver/Inc/stm32f0xx_ll_system.h **** #define LL_SYSCFG_EXTI_LINE15              (uint32_t)(12U << 16U | 3U) /*!< EXTI_POSITION_12 | EXTI
 257:Drivers/STM32F0xx_HAL_Driver/Inc/stm32f0xx_ll_system.h **** /**
 258:Drivers/STM32F0xx_HAL_Driver/Inc/stm32f0xx_ll_system.h ****   * @}
 259:Drivers/STM32F0xx_HAL_Driver/Inc/stm32f0xx_ll_system.h ****   */
 260:Drivers/STM32F0xx_HAL_Driver/Inc/stm32f0xx_ll_system.h **** 
 261:Drivers/STM32F0xx_HAL_Driver/Inc/stm32f0xx_ll_system.h **** /** @defgroup SYSTEM_LL_EC_TIMBREAK SYSCFG TIMER BREAK
 262:Drivers/STM32F0xx_HAL_Driver/Inc/stm32f0xx_ll_system.h ****   * @{
 263:Drivers/STM32F0xx_HAL_Driver/Inc/stm32f0xx_ll_system.h ****   */
 264:Drivers/STM32F0xx_HAL_Driver/Inc/stm32f0xx_ll_system.h **** #if defined(SYSCFG_CFGR2_PVD_LOCK)
 265:Drivers/STM32F0xx_HAL_Driver/Inc/stm32f0xx_ll_system.h **** #define LL_SYSCFG_TIMBREAK_PVD             SYSCFG_CFGR2_PVD_LOCK  /*!< Enables and locks the PVD co
 266:Drivers/STM32F0xx_HAL_Driver/Inc/stm32f0xx_ll_system.h ****                                                                        with TIM1/15/16U/17 Break In
 267:Drivers/STM32F0xx_HAL_Driver/Inc/stm32f0xx_ll_system.h ****                                                                        the PVDE and PLS bits of the
 268:Drivers/STM32F0xx_HAL_Driver/Inc/stm32f0xx_ll_system.h **** #endif /*SYSCFG_CFGR2_PVD_LOCK*/
 269:Drivers/STM32F0xx_HAL_Driver/Inc/stm32f0xx_ll_system.h **** #define LL_SYSCFG_TIMBREAK_SRAM_PARITY     SYSCFG_CFGR2_SRAM_PARITY_LOCK   /*!< Enables and locks t
 270:Drivers/STM32F0xx_HAL_Driver/Inc/stm32f0xx_ll_system.h ****                                                                                 with Break Input of
 271:Drivers/STM32F0xx_HAL_Driver/Inc/stm32f0xx_ll_system.h **** #define LL_SYSCFG_TIMBREAK_LOCKUP          SYSCFG_CFGR2_LOCKUP_LOCK   /*!< Enables and locks the LO
 272:Drivers/STM32F0xx_HAL_Driver/Inc/stm32f0xx_ll_system.h ****                                                                            CortexM0 with Break Inpu
 273:Drivers/STM32F0xx_HAL_Driver/Inc/stm32f0xx_ll_system.h **** /**
 274:Drivers/STM32F0xx_HAL_Driver/Inc/stm32f0xx_ll_system.h ****   * @}
 275:Drivers/STM32F0xx_HAL_Driver/Inc/stm32f0xx_ll_system.h ****   */
 276:Drivers/STM32F0xx_HAL_Driver/Inc/stm32f0xx_ll_system.h **** 
 277:Drivers/STM32F0xx_HAL_Driver/Inc/stm32f0xx_ll_system.h **** /** @defgroup SYSTEM_LL_EC_APB1_GRP1_STOP_IP  DBGMCU APB1 GRP1 STOP IP
 278:Drivers/STM32F0xx_HAL_Driver/Inc/stm32f0xx_ll_system.h ****   * @{
 279:Drivers/STM32F0xx_HAL_Driver/Inc/stm32f0xx_ll_system.h ****   */
 280:Drivers/STM32F0xx_HAL_Driver/Inc/stm32f0xx_ll_system.h **** #if defined(DBGMCU_APB1_FZ_DBG_TIM2_STOP)
 281:Drivers/STM32F0xx_HAL_Driver/Inc/stm32f0xx_ll_system.h **** #define LL_DBGMCU_APB1_GRP1_TIM2_STOP      DBGMCU_APB1_FZ_DBG_TIM2_STOP        /*!< TIM2 counter st
 282:Drivers/STM32F0xx_HAL_Driver/Inc/stm32f0xx_ll_system.h **** #endif /*DBGMCU_APB1_FZ_DBG_TIM2_STOP*/
 283:Drivers/STM32F0xx_HAL_Driver/Inc/stm32f0xx_ll_system.h **** #define LL_DBGMCU_APB1_GRP1_TIM3_STOP      DBGMCU_APB1_FZ_DBG_TIM3_STOP        /*!< TIM3 counter st
 284:Drivers/STM32F0xx_HAL_Driver/Inc/stm32f0xx_ll_system.h **** #if defined(DBGMCU_APB1_FZ_DBG_TIM6_STOP)
 285:Drivers/STM32F0xx_HAL_Driver/Inc/stm32f0xx_ll_system.h **** #define LL_DBGMCU_APB1_GRP1_TIM6_STOP      DBGMCU_APB1_FZ_DBG_TIM6_STOP        /*!< TIM6 counter st
 286:Drivers/STM32F0xx_HAL_Driver/Inc/stm32f0xx_ll_system.h **** #endif /*DBGMCU_APB1_FZ_DBG_TIM6_STOP*/
 287:Drivers/STM32F0xx_HAL_Driver/Inc/stm32f0xx_ll_system.h **** #if defined(DBGMCU_APB1_FZ_DBG_TIM7_STOP)
 288:Drivers/STM32F0xx_HAL_Driver/Inc/stm32f0xx_ll_system.h **** #define LL_DBGMCU_APB1_GRP1_TIM7_STOP      DBGMCU_APB1_FZ_DBG_TIM7_STOP        /*!< TIM7 counter st
 289:Drivers/STM32F0xx_HAL_Driver/Inc/stm32f0xx_ll_system.h **** #endif /*DBGMCU_APB1_FZ_DBG_TIM7_STOP*/
 290:Drivers/STM32F0xx_HAL_Driver/Inc/stm32f0xx_ll_system.h **** #define LL_DBGMCU_APB1_GRP1_TIM14_STOP     DBGMCU_APB1_FZ_DBG_TIM14_STOP       /*!< TIM14 counter s
 291:Drivers/STM32F0xx_HAL_Driver/Inc/stm32f0xx_ll_system.h **** #define LL_DBGMCU_APB1_GRP1_RTC_STOP       DBGMCU_APB1_FZ_DBG_RTC_STOP         /*!< RTC Calendar fr
 292:Drivers/STM32F0xx_HAL_Driver/Inc/stm32f0xx_ll_system.h **** #define LL_DBGMCU_APB1_GRP1_WWDG_STOP      DBGMCU_APB1_FZ_DBG_WWDG_STOP        /*!< Debug Window Wa
 293:Drivers/STM32F0xx_HAL_Driver/Inc/stm32f0xx_ll_system.h **** #define LL_DBGMCU_APB1_GRP1_IWDG_STOP      DBGMCU_APB1_FZ_DBG_IWDG_STOP        /*!< Debug Independe
 294:Drivers/STM32F0xx_HAL_Driver/Inc/stm32f0xx_ll_system.h **** #define LL_DBGMCU_APB1_GRP1_I2C1_STOP      DBGMCU_APB1_FZ_DBG_I2C1_SMBUS_TIMEOUT /*!< I2C1 SMBUS ti
 295:Drivers/STM32F0xx_HAL_Driver/Inc/stm32f0xx_ll_system.h **** #if defined(DBGMCU_APB1_FZ_DBG_CAN_STOP)
 296:Drivers/STM32F0xx_HAL_Driver/Inc/stm32f0xx_ll_system.h **** #define LL_DBGMCU_APB1_GRP1_CAN_STOP       DBGMCU_APB1_FZ_DBG_CAN_STOP         /*!< CAN debug stopp
 297:Drivers/STM32F0xx_HAL_Driver/Inc/stm32f0xx_ll_system.h **** #endif /*DBGMCU_APB1_FZ_DBG_CAN_STOP*/
 298:Drivers/STM32F0xx_HAL_Driver/Inc/stm32f0xx_ll_system.h **** /**
 299:Drivers/STM32F0xx_HAL_Driver/Inc/stm32f0xx_ll_system.h ****   * @}
 300:Drivers/STM32F0xx_HAL_Driver/Inc/stm32f0xx_ll_system.h ****   */
 301:Drivers/STM32F0xx_HAL_Driver/Inc/stm32f0xx_ll_system.h **** 
 302:Drivers/STM32F0xx_HAL_Driver/Inc/stm32f0xx_ll_system.h **** /** @defgroup SYSTEM_LL_EC_APB1 GRP2_STOP_IP DBGMCU APB1 GRP2 STOP IP
 303:Drivers/STM32F0xx_HAL_Driver/Inc/stm32f0xx_ll_system.h ****   * @{
 304:Drivers/STM32F0xx_HAL_Driver/Inc/stm32f0xx_ll_system.h ****   */
 305:Drivers/STM32F0xx_HAL_Driver/Inc/stm32f0xx_ll_system.h **** #define LL_DBGMCU_APB1_GRP2_TIM1_STOP      DBGMCU_APB2_FZ_DBG_TIM1_STOP        /*!< TIM1 counter st
 306:Drivers/STM32F0xx_HAL_Driver/Inc/stm32f0xx_ll_system.h **** #if defined(DBGMCU_APB2_FZ_DBG_TIM15_STOP)
 307:Drivers/STM32F0xx_HAL_Driver/Inc/stm32f0xx_ll_system.h **** #define LL_DBGMCU_APB1_GRP2_TIM15_STOP     DBGMCU_APB2_FZ_DBG_TIM15_STOP       /*!< TIM15 counter s
 308:Drivers/STM32F0xx_HAL_Driver/Inc/stm32f0xx_ll_system.h **** #endif /*DBGMCU_APB2_FZ_DBG_TIM15_STOP*/
 309:Drivers/STM32F0xx_HAL_Driver/Inc/stm32f0xx_ll_system.h **** #define LL_DBGMCU_APB1_GRP2_TIM16_STOP     DBGMCU_APB2_FZ_DBG_TIM16_STOP       /*!< TIM16 counter s
 310:Drivers/STM32F0xx_HAL_Driver/Inc/stm32f0xx_ll_system.h **** #define LL_DBGMCU_APB1_GRP2_TIM17_STOP     DBGMCU_APB2_FZ_DBG_TIM17_STOP       /*!< TIM17 counter s
 311:Drivers/STM32F0xx_HAL_Driver/Inc/stm32f0xx_ll_system.h **** /**
ARM GAS  /var/folders/zf/mkqpy7tx7p1_khjt1h6hykn40000gn/T//ccF4YHcI.s 			page 38


 312:Drivers/STM32F0xx_HAL_Driver/Inc/stm32f0xx_ll_system.h ****   * @}
 313:Drivers/STM32F0xx_HAL_Driver/Inc/stm32f0xx_ll_system.h ****   */
 314:Drivers/STM32F0xx_HAL_Driver/Inc/stm32f0xx_ll_system.h **** 
 315:Drivers/STM32F0xx_HAL_Driver/Inc/stm32f0xx_ll_system.h **** /** @defgroup SYSTEM_LL_EC_LATENCY FLASH LATENCY
 316:Drivers/STM32F0xx_HAL_Driver/Inc/stm32f0xx_ll_system.h ****   * @{
 317:Drivers/STM32F0xx_HAL_Driver/Inc/stm32f0xx_ll_system.h ****   */
 318:Drivers/STM32F0xx_HAL_Driver/Inc/stm32f0xx_ll_system.h **** #define LL_FLASH_LATENCY_0                 0x00000000U             /*!< FLASH Zero Latency cycle */
 319:Drivers/STM32F0xx_HAL_Driver/Inc/stm32f0xx_ll_system.h **** #define LL_FLASH_LATENCY_1                 FLASH_ACR_LATENCY       /*!< FLASH One Latency cycle */
 320:Drivers/STM32F0xx_HAL_Driver/Inc/stm32f0xx_ll_system.h **** /**
 321:Drivers/STM32F0xx_HAL_Driver/Inc/stm32f0xx_ll_system.h ****   * @}
 322:Drivers/STM32F0xx_HAL_Driver/Inc/stm32f0xx_ll_system.h ****   */
 323:Drivers/STM32F0xx_HAL_Driver/Inc/stm32f0xx_ll_system.h **** 
 324:Drivers/STM32F0xx_HAL_Driver/Inc/stm32f0xx_ll_system.h **** /**
 325:Drivers/STM32F0xx_HAL_Driver/Inc/stm32f0xx_ll_system.h ****   * @}
 326:Drivers/STM32F0xx_HAL_Driver/Inc/stm32f0xx_ll_system.h ****   */
 327:Drivers/STM32F0xx_HAL_Driver/Inc/stm32f0xx_ll_system.h **** 
 328:Drivers/STM32F0xx_HAL_Driver/Inc/stm32f0xx_ll_system.h **** /* Exported macro ------------------------------------------------------------*/
 329:Drivers/STM32F0xx_HAL_Driver/Inc/stm32f0xx_ll_system.h **** 
 330:Drivers/STM32F0xx_HAL_Driver/Inc/stm32f0xx_ll_system.h **** /* Exported functions --------------------------------------------------------*/
 331:Drivers/STM32F0xx_HAL_Driver/Inc/stm32f0xx_ll_system.h **** /** @defgroup SYSTEM_LL_Exported_Functions SYSTEM Exported Functions
 332:Drivers/STM32F0xx_HAL_Driver/Inc/stm32f0xx_ll_system.h ****   * @{
 333:Drivers/STM32F0xx_HAL_Driver/Inc/stm32f0xx_ll_system.h ****   */
 334:Drivers/STM32F0xx_HAL_Driver/Inc/stm32f0xx_ll_system.h **** 
 335:Drivers/STM32F0xx_HAL_Driver/Inc/stm32f0xx_ll_system.h **** /** @defgroup SYSTEM_LL_EF_SYSCFG SYSCFG
 336:Drivers/STM32F0xx_HAL_Driver/Inc/stm32f0xx_ll_system.h ****   * @{
 337:Drivers/STM32F0xx_HAL_Driver/Inc/stm32f0xx_ll_system.h ****   */
 338:Drivers/STM32F0xx_HAL_Driver/Inc/stm32f0xx_ll_system.h **** 
 339:Drivers/STM32F0xx_HAL_Driver/Inc/stm32f0xx_ll_system.h **** /**
 340:Drivers/STM32F0xx_HAL_Driver/Inc/stm32f0xx_ll_system.h ****   * @brief  Set memory mapping at address 0x00000000
 341:Drivers/STM32F0xx_HAL_Driver/Inc/stm32f0xx_ll_system.h ****   * @rmtoll SYSCFG_CFGR1 MEM_MODE      LL_SYSCFG_SetRemapMemory
 342:Drivers/STM32F0xx_HAL_Driver/Inc/stm32f0xx_ll_system.h ****   * @param  Memory This parameter can be one of the following values:
 343:Drivers/STM32F0xx_HAL_Driver/Inc/stm32f0xx_ll_system.h ****   *         @arg @ref LL_SYSCFG_REMAP_FLASH
 344:Drivers/STM32F0xx_HAL_Driver/Inc/stm32f0xx_ll_system.h ****   *         @arg @ref LL_SYSCFG_REMAP_SYSTEMFLASH
 345:Drivers/STM32F0xx_HAL_Driver/Inc/stm32f0xx_ll_system.h ****   *         @arg @ref LL_SYSCFG_REMAP_SRAM
 346:Drivers/STM32F0xx_HAL_Driver/Inc/stm32f0xx_ll_system.h ****   * @retval None
 347:Drivers/STM32F0xx_HAL_Driver/Inc/stm32f0xx_ll_system.h ****   */
 348:Drivers/STM32F0xx_HAL_Driver/Inc/stm32f0xx_ll_system.h **** __STATIC_INLINE void LL_SYSCFG_SetRemapMemory(uint32_t Memory)
 349:Drivers/STM32F0xx_HAL_Driver/Inc/stm32f0xx_ll_system.h **** {
 350:Drivers/STM32F0xx_HAL_Driver/Inc/stm32f0xx_ll_system.h ****   MODIFY_REG(SYSCFG->CFGR1, SYSCFG_CFGR1_MEM_MODE, Memory);
 351:Drivers/STM32F0xx_HAL_Driver/Inc/stm32f0xx_ll_system.h **** }
 352:Drivers/STM32F0xx_HAL_Driver/Inc/stm32f0xx_ll_system.h **** 
 353:Drivers/STM32F0xx_HAL_Driver/Inc/stm32f0xx_ll_system.h **** /**
 354:Drivers/STM32F0xx_HAL_Driver/Inc/stm32f0xx_ll_system.h ****   * @brief  Get memory mapping at address 0x00000000
 355:Drivers/STM32F0xx_HAL_Driver/Inc/stm32f0xx_ll_system.h ****   * @rmtoll SYSCFG_CFGR1 MEM_MODE      LL_SYSCFG_GetRemapMemory
 356:Drivers/STM32F0xx_HAL_Driver/Inc/stm32f0xx_ll_system.h ****   * @retval Returned value can be one of the following values:
 357:Drivers/STM32F0xx_HAL_Driver/Inc/stm32f0xx_ll_system.h ****   *         @arg @ref LL_SYSCFG_REMAP_FLASH
 358:Drivers/STM32F0xx_HAL_Driver/Inc/stm32f0xx_ll_system.h ****   *         @arg @ref LL_SYSCFG_REMAP_SYSTEMFLASH
 359:Drivers/STM32F0xx_HAL_Driver/Inc/stm32f0xx_ll_system.h ****   *         @arg @ref LL_SYSCFG_REMAP_SRAM
 360:Drivers/STM32F0xx_HAL_Driver/Inc/stm32f0xx_ll_system.h ****   */
 361:Drivers/STM32F0xx_HAL_Driver/Inc/stm32f0xx_ll_system.h **** __STATIC_INLINE uint32_t LL_SYSCFG_GetRemapMemory(void)
 362:Drivers/STM32F0xx_HAL_Driver/Inc/stm32f0xx_ll_system.h **** {
 363:Drivers/STM32F0xx_HAL_Driver/Inc/stm32f0xx_ll_system.h ****   return (uint32_t)(READ_BIT(SYSCFG->CFGR1, SYSCFG_CFGR1_MEM_MODE));
 364:Drivers/STM32F0xx_HAL_Driver/Inc/stm32f0xx_ll_system.h **** }
 365:Drivers/STM32F0xx_HAL_Driver/Inc/stm32f0xx_ll_system.h **** 
 366:Drivers/STM32F0xx_HAL_Driver/Inc/stm32f0xx_ll_system.h **** #if defined(SYSCFG_CFGR1_IR_MOD)
 367:Drivers/STM32F0xx_HAL_Driver/Inc/stm32f0xx_ll_system.h **** /**
 368:Drivers/STM32F0xx_HAL_Driver/Inc/stm32f0xx_ll_system.h ****   * @brief  Set IR Modulation Envelope signal source.
ARM GAS  /var/folders/zf/mkqpy7tx7p1_khjt1h6hykn40000gn/T//ccF4YHcI.s 			page 39


 369:Drivers/STM32F0xx_HAL_Driver/Inc/stm32f0xx_ll_system.h ****   * @rmtoll SYSCFG_CFGR1 IR_MOD  LL_SYSCFG_SetIRModEnvelopeSignal
 370:Drivers/STM32F0xx_HAL_Driver/Inc/stm32f0xx_ll_system.h ****   * @param  Source This parameter can be one of the following values:
 371:Drivers/STM32F0xx_HAL_Driver/Inc/stm32f0xx_ll_system.h ****   *         @arg @ref LL_SYSCFG_IR_MOD_TIM16
 372:Drivers/STM32F0xx_HAL_Driver/Inc/stm32f0xx_ll_system.h ****   *         @arg @ref LL_SYSCFG_IR_MOD_USART1
 373:Drivers/STM32F0xx_HAL_Driver/Inc/stm32f0xx_ll_system.h ****   *         @arg @ref LL_SYSCFG_IR_MOD_USART4
 374:Drivers/STM32F0xx_HAL_Driver/Inc/stm32f0xx_ll_system.h ****   * @retval None
 375:Drivers/STM32F0xx_HAL_Driver/Inc/stm32f0xx_ll_system.h ****   */
 376:Drivers/STM32F0xx_HAL_Driver/Inc/stm32f0xx_ll_system.h **** __STATIC_INLINE void LL_SYSCFG_SetIRModEnvelopeSignal(uint32_t Source)
 377:Drivers/STM32F0xx_HAL_Driver/Inc/stm32f0xx_ll_system.h **** {
 378:Drivers/STM32F0xx_HAL_Driver/Inc/stm32f0xx_ll_system.h ****   MODIFY_REG(SYSCFG->CFGR1, SYSCFG_CFGR1_IR_MOD, Source);
 379:Drivers/STM32F0xx_HAL_Driver/Inc/stm32f0xx_ll_system.h **** }
 380:Drivers/STM32F0xx_HAL_Driver/Inc/stm32f0xx_ll_system.h **** 
 381:Drivers/STM32F0xx_HAL_Driver/Inc/stm32f0xx_ll_system.h **** /**
 382:Drivers/STM32F0xx_HAL_Driver/Inc/stm32f0xx_ll_system.h ****   * @brief  Get IR Modulation Envelope signal source.
 383:Drivers/STM32F0xx_HAL_Driver/Inc/stm32f0xx_ll_system.h ****   * @rmtoll SYSCFG_CFGR1 IR_MOD  LL_SYSCFG_GetIRModEnvelopeSignal
 384:Drivers/STM32F0xx_HAL_Driver/Inc/stm32f0xx_ll_system.h ****   * @retval Returned value can be one of the following values:
 385:Drivers/STM32F0xx_HAL_Driver/Inc/stm32f0xx_ll_system.h ****   *         @arg @ref LL_SYSCFG_IR_MOD_TIM16
 386:Drivers/STM32F0xx_HAL_Driver/Inc/stm32f0xx_ll_system.h ****   *         @arg @ref LL_SYSCFG_IR_MOD_USART1
 387:Drivers/STM32F0xx_HAL_Driver/Inc/stm32f0xx_ll_system.h ****   *         @arg @ref LL_SYSCFG_IR_MOD_USART4
 388:Drivers/STM32F0xx_HAL_Driver/Inc/stm32f0xx_ll_system.h ****   */
 389:Drivers/STM32F0xx_HAL_Driver/Inc/stm32f0xx_ll_system.h **** __STATIC_INLINE uint32_t LL_SYSCFG_GetIRModEnvelopeSignal(void)
 390:Drivers/STM32F0xx_HAL_Driver/Inc/stm32f0xx_ll_system.h **** {
 391:Drivers/STM32F0xx_HAL_Driver/Inc/stm32f0xx_ll_system.h ****   return (uint32_t)(READ_BIT(SYSCFG->CFGR1, SYSCFG_CFGR1_IR_MOD));
 392:Drivers/STM32F0xx_HAL_Driver/Inc/stm32f0xx_ll_system.h **** }
 393:Drivers/STM32F0xx_HAL_Driver/Inc/stm32f0xx_ll_system.h **** #endif /* SYSCFG_CFGR1_IR_MOD */
 394:Drivers/STM32F0xx_HAL_Driver/Inc/stm32f0xx_ll_system.h **** 
 395:Drivers/STM32F0xx_HAL_Driver/Inc/stm32f0xx_ll_system.h **** #if defined(SYSCFG_CFGR1_USART1TX_DMA_RMP) || defined(SYSCFG_CFGR1_USART1RX_DMA_RMP) || defined(SYS
 396:Drivers/STM32F0xx_HAL_Driver/Inc/stm32f0xx_ll_system.h **** /**
 397:Drivers/STM32F0xx_HAL_Driver/Inc/stm32f0xx_ll_system.h ****   * @brief  Set DMA request remapping bits for USART
 398:Drivers/STM32F0xx_HAL_Driver/Inc/stm32f0xx_ll_system.h ****   * @rmtoll SYSCFG_CFGR1 USART1TX_DMA_RMP  LL_SYSCFG_SetRemapDMA_USART\n
 399:Drivers/STM32F0xx_HAL_Driver/Inc/stm32f0xx_ll_system.h ****   *         SYSCFG_CFGR1 USART1RX_DMA_RMP  LL_SYSCFG_SetRemapDMA_USART\n
 400:Drivers/STM32F0xx_HAL_Driver/Inc/stm32f0xx_ll_system.h ****   *         SYSCFG_CFGR1 USART2_DMA_RMP  LL_SYSCFG_SetRemapDMA_USART\n
 401:Drivers/STM32F0xx_HAL_Driver/Inc/stm32f0xx_ll_system.h ****   *         SYSCFG_CFGR1 USART3_DMA_RMP  LL_SYSCFG_SetRemapDMA_USART
 402:Drivers/STM32F0xx_HAL_Driver/Inc/stm32f0xx_ll_system.h ****   * @param  Remap This parameter can be one of the following values:
 403:Drivers/STM32F0xx_HAL_Driver/Inc/stm32f0xx_ll_system.h ****   *         @arg @ref LL_SYSCFG_USART1TX_RMP_DMA1CH2 (*)
 404:Drivers/STM32F0xx_HAL_Driver/Inc/stm32f0xx_ll_system.h ****   *         @arg @ref LL_SYSCFG_USART1TX_RMP_DMA1CH4 (*)
 405:Drivers/STM32F0xx_HAL_Driver/Inc/stm32f0xx_ll_system.h ****   *         @arg @ref LL_SYSCFG_USART1RX_RMP_DMA1CH3 (*)
 406:Drivers/STM32F0xx_HAL_Driver/Inc/stm32f0xx_ll_system.h ****   *         @arg @ref LL_SYSCFG_USART1RX_RMP_DMA1CH5 (*)
 407:Drivers/STM32F0xx_HAL_Driver/Inc/stm32f0xx_ll_system.h ****   *         @arg @ref LL_SYSCFG_USART2_RMP_DMA1CH54 (*)
 408:Drivers/STM32F0xx_HAL_Driver/Inc/stm32f0xx_ll_system.h ****   *         @arg @ref LL_SYSCFG_USART2_RMP_DMA1CH67 (*)
 409:Drivers/STM32F0xx_HAL_Driver/Inc/stm32f0xx_ll_system.h ****   *         @arg @ref LL_SYSCFG_USART3_RMP_DMA1CH67 (*)
 410:Drivers/STM32F0xx_HAL_Driver/Inc/stm32f0xx_ll_system.h ****   *         @arg @ref LL_SYSCFG_USART3_RMP_DMA1CH32 (*)
 411:Drivers/STM32F0xx_HAL_Driver/Inc/stm32f0xx_ll_system.h ****   *
 412:Drivers/STM32F0xx_HAL_Driver/Inc/stm32f0xx_ll_system.h ****   *         (*) value not defined in all devices.
 413:Drivers/STM32F0xx_HAL_Driver/Inc/stm32f0xx_ll_system.h ****   * @retval None
 414:Drivers/STM32F0xx_HAL_Driver/Inc/stm32f0xx_ll_system.h ****   */
 415:Drivers/STM32F0xx_HAL_Driver/Inc/stm32f0xx_ll_system.h **** __STATIC_INLINE void LL_SYSCFG_SetRemapDMA_USART(uint32_t Remap)
 416:Drivers/STM32F0xx_HAL_Driver/Inc/stm32f0xx_ll_system.h **** {
 417:Drivers/STM32F0xx_HAL_Driver/Inc/stm32f0xx_ll_system.h ****   MODIFY_REG(SYSCFG->CFGR1, (Remap & 0x00FF00FFU) << 8U, (Remap & 0xFF00FF00U));
 418:Drivers/STM32F0xx_HAL_Driver/Inc/stm32f0xx_ll_system.h **** }
 419:Drivers/STM32F0xx_HAL_Driver/Inc/stm32f0xx_ll_system.h **** #endif /* SYSCFG_CFGR1_USART1TX_DMA_RMP || SYSCFG_CFGR1_USART1RX_DMA_RMP || SYSCFG_CFGR1_USART2_DMA
 420:Drivers/STM32F0xx_HAL_Driver/Inc/stm32f0xx_ll_system.h **** 
 421:Drivers/STM32F0xx_HAL_Driver/Inc/stm32f0xx_ll_system.h **** #if defined(SYSCFG_CFGR1_SPI2_DMA_RMP)
 422:Drivers/STM32F0xx_HAL_Driver/Inc/stm32f0xx_ll_system.h **** /**
 423:Drivers/STM32F0xx_HAL_Driver/Inc/stm32f0xx_ll_system.h ****   * @brief  Set DMA request remapping bits for SPI
 424:Drivers/STM32F0xx_HAL_Driver/Inc/stm32f0xx_ll_system.h ****   * @rmtoll SYSCFG_CFGR1 SPI2_DMA_RMP  LL_SYSCFG_SetRemapDMA_SPI
 425:Drivers/STM32F0xx_HAL_Driver/Inc/stm32f0xx_ll_system.h ****   * @param  Remap This parameter can be one of the following values:
ARM GAS  /var/folders/zf/mkqpy7tx7p1_khjt1h6hykn40000gn/T//ccF4YHcI.s 			page 40


 426:Drivers/STM32F0xx_HAL_Driver/Inc/stm32f0xx_ll_system.h ****   *         @arg @ref LL_SYSCFG_SPI2_RMP_DMA1_CH45
 427:Drivers/STM32F0xx_HAL_Driver/Inc/stm32f0xx_ll_system.h ****   *         @arg @ref LL_SYSCFG_SPI2_RMP_DMA1_CH67
 428:Drivers/STM32F0xx_HAL_Driver/Inc/stm32f0xx_ll_system.h ****   * @retval None
 429:Drivers/STM32F0xx_HAL_Driver/Inc/stm32f0xx_ll_system.h ****   */
 430:Drivers/STM32F0xx_HAL_Driver/Inc/stm32f0xx_ll_system.h **** __STATIC_INLINE void LL_SYSCFG_SetRemapDMA_SPI(uint32_t Remap)
 431:Drivers/STM32F0xx_HAL_Driver/Inc/stm32f0xx_ll_system.h **** {
 432:Drivers/STM32F0xx_HAL_Driver/Inc/stm32f0xx_ll_system.h ****   MODIFY_REG(SYSCFG->CFGR1, SYSCFG_CFGR1_SPI2_DMA_RMP, Remap);
 433:Drivers/STM32F0xx_HAL_Driver/Inc/stm32f0xx_ll_system.h **** }
 434:Drivers/STM32F0xx_HAL_Driver/Inc/stm32f0xx_ll_system.h **** #endif /* SYSCFG_CFGR1_SPI2_DMA_RMP */
 435:Drivers/STM32F0xx_HAL_Driver/Inc/stm32f0xx_ll_system.h **** 
 436:Drivers/STM32F0xx_HAL_Driver/Inc/stm32f0xx_ll_system.h **** #if defined(SYSCFG_CFGR1_I2C1_DMA_RMP)
 437:Drivers/STM32F0xx_HAL_Driver/Inc/stm32f0xx_ll_system.h **** /**
 438:Drivers/STM32F0xx_HAL_Driver/Inc/stm32f0xx_ll_system.h ****   * @brief  Set DMA request remapping bits for I2C
 439:Drivers/STM32F0xx_HAL_Driver/Inc/stm32f0xx_ll_system.h ****   * @rmtoll SYSCFG_CFGR1 I2C1_DMA_RMP  LL_SYSCFG_SetRemapDMA_I2C
 440:Drivers/STM32F0xx_HAL_Driver/Inc/stm32f0xx_ll_system.h ****   * @param  Remap This parameter can be one of the following values:
 441:Drivers/STM32F0xx_HAL_Driver/Inc/stm32f0xx_ll_system.h ****   *         @arg @ref LL_SYSCFG_I2C1_RMP_DMA1_CH32
 442:Drivers/STM32F0xx_HAL_Driver/Inc/stm32f0xx_ll_system.h ****   *         @arg @ref LL_SYSCFG_I2C1_RMP_DMA1_CH76
 443:Drivers/STM32F0xx_HAL_Driver/Inc/stm32f0xx_ll_system.h ****   * @retval None
 444:Drivers/STM32F0xx_HAL_Driver/Inc/stm32f0xx_ll_system.h ****   */
 445:Drivers/STM32F0xx_HAL_Driver/Inc/stm32f0xx_ll_system.h **** __STATIC_INLINE void LL_SYSCFG_SetRemapDMA_I2C(uint32_t Remap)
 446:Drivers/STM32F0xx_HAL_Driver/Inc/stm32f0xx_ll_system.h **** {
 447:Drivers/STM32F0xx_HAL_Driver/Inc/stm32f0xx_ll_system.h ****   MODIFY_REG(SYSCFG->CFGR1, SYSCFG_CFGR1_I2C1_DMA_RMP, Remap);
 448:Drivers/STM32F0xx_HAL_Driver/Inc/stm32f0xx_ll_system.h **** }
 449:Drivers/STM32F0xx_HAL_Driver/Inc/stm32f0xx_ll_system.h **** #endif /* SYSCFG_CFGR1_I2C1_DMA_RMP */
 450:Drivers/STM32F0xx_HAL_Driver/Inc/stm32f0xx_ll_system.h **** 
 451:Drivers/STM32F0xx_HAL_Driver/Inc/stm32f0xx_ll_system.h **** #if defined(SYSCFG_CFGR1_ADC_DMA_RMP)
 452:Drivers/STM32F0xx_HAL_Driver/Inc/stm32f0xx_ll_system.h **** /**
 453:Drivers/STM32F0xx_HAL_Driver/Inc/stm32f0xx_ll_system.h ****   * @brief  Set DMA request remapping bits for ADC
 454:Drivers/STM32F0xx_HAL_Driver/Inc/stm32f0xx_ll_system.h ****   * @rmtoll SYSCFG_CFGR1 ADC_DMA_RMP   LL_SYSCFG_SetRemapDMA_ADC
 455:Drivers/STM32F0xx_HAL_Driver/Inc/stm32f0xx_ll_system.h ****   * @param  Remap This parameter can be one of the following values:
 456:Drivers/STM32F0xx_HAL_Driver/Inc/stm32f0xx_ll_system.h ****   *         @arg @ref LL_SYSCFG_ADC1_RMP_DMA1_CH1
 457:Drivers/STM32F0xx_HAL_Driver/Inc/stm32f0xx_ll_system.h ****   *         @arg @ref LL_SYSCFG_ADC1_RMP_DMA1_CH2
 458:Drivers/STM32F0xx_HAL_Driver/Inc/stm32f0xx_ll_system.h ****   * @retval None
 459:Drivers/STM32F0xx_HAL_Driver/Inc/stm32f0xx_ll_system.h ****   */
 460:Drivers/STM32F0xx_HAL_Driver/Inc/stm32f0xx_ll_system.h **** __STATIC_INLINE void LL_SYSCFG_SetRemapDMA_ADC(uint32_t Remap)
 461:Drivers/STM32F0xx_HAL_Driver/Inc/stm32f0xx_ll_system.h **** {
 462:Drivers/STM32F0xx_HAL_Driver/Inc/stm32f0xx_ll_system.h ****   MODIFY_REG(SYSCFG->CFGR1, SYSCFG_CFGR1_ADC_DMA_RMP, Remap);
 463:Drivers/STM32F0xx_HAL_Driver/Inc/stm32f0xx_ll_system.h **** }
 464:Drivers/STM32F0xx_HAL_Driver/Inc/stm32f0xx_ll_system.h **** #endif /* SYSCFG_CFGR1_ADC_DMA_RMP */
 465:Drivers/STM32F0xx_HAL_Driver/Inc/stm32f0xx_ll_system.h **** 
 466:Drivers/STM32F0xx_HAL_Driver/Inc/stm32f0xx_ll_system.h **** #if defined(SYSCFG_CFGR1_TIM16_DMA_RMP) || defined(SYSCFG_CFGR1_TIM17_DMA_RMP) || defined(SYSCFG_CF
 467:Drivers/STM32F0xx_HAL_Driver/Inc/stm32f0xx_ll_system.h **** /**
 468:Drivers/STM32F0xx_HAL_Driver/Inc/stm32f0xx_ll_system.h ****   * @brief  Set DMA request remapping bits for TIM
 469:Drivers/STM32F0xx_HAL_Driver/Inc/stm32f0xx_ll_system.h ****   * @rmtoll SYSCFG_CFGR1 TIM16_DMA_RMP  LL_SYSCFG_SetRemapDMA_TIM\n
 470:Drivers/STM32F0xx_HAL_Driver/Inc/stm32f0xx_ll_system.h ****   *         SYSCFG_CFGR1 TIM17_DMA_RMP  LL_SYSCFG_SetRemapDMA_TIM\n
 471:Drivers/STM32F0xx_HAL_Driver/Inc/stm32f0xx_ll_system.h ****   *         SYSCFG_CFGR1 TIM16_DMA_RMP2 LL_SYSCFG_SetRemapDMA_TIM\n
 472:Drivers/STM32F0xx_HAL_Driver/Inc/stm32f0xx_ll_system.h ****   *         SYSCFG_CFGR1 TIM17_DMA_RMP2 LL_SYSCFG_SetRemapDMA_TIM\n
 473:Drivers/STM32F0xx_HAL_Driver/Inc/stm32f0xx_ll_system.h ****   *         SYSCFG_CFGR1 TIM1_DMA_RMP   LL_SYSCFG_SetRemapDMA_TIM\n
 474:Drivers/STM32F0xx_HAL_Driver/Inc/stm32f0xx_ll_system.h ****   *         SYSCFG_CFGR1 TIM2_DMA_RMP   LL_SYSCFG_SetRemapDMA_TIM\n
 475:Drivers/STM32F0xx_HAL_Driver/Inc/stm32f0xx_ll_system.h ****   *         SYSCFG_CFGR1 TIM3_DMA_RMP   LL_SYSCFG_SetRemapDMA_TIM
 476:Drivers/STM32F0xx_HAL_Driver/Inc/stm32f0xx_ll_system.h ****   * @param  Remap This parameter can be one of the following values:
 477:Drivers/STM32F0xx_HAL_Driver/Inc/stm32f0xx_ll_system.h ****   *         @arg @ref LL_SYSCFG_TIM16_RMP_DMA1_CH3 (*)
 478:Drivers/STM32F0xx_HAL_Driver/Inc/stm32f0xx_ll_system.h ****   *         @arg @ref LL_SYSCFG_TIM16_RMP_DMA1_CH4 (*)
 479:Drivers/STM32F0xx_HAL_Driver/Inc/stm32f0xx_ll_system.h ****   *         @arg @ref LL_SYSCFG_TIM16_RMP_DMA1_CH6 (*)
 480:Drivers/STM32F0xx_HAL_Driver/Inc/stm32f0xx_ll_system.h ****   *         @arg @ref LL_SYSCFG_TIM17_RMP_DMA1_CH1 (*)
 481:Drivers/STM32F0xx_HAL_Driver/Inc/stm32f0xx_ll_system.h ****   *         @arg @ref LL_SYSCFG_TIM17_RMP_DMA1_CH2 (*)
 482:Drivers/STM32F0xx_HAL_Driver/Inc/stm32f0xx_ll_system.h ****   *         @arg @ref LL_SYSCFG_TIM17_RMP_DMA1_CH7 (*)
ARM GAS  /var/folders/zf/mkqpy7tx7p1_khjt1h6hykn40000gn/T//ccF4YHcI.s 			page 41


 483:Drivers/STM32F0xx_HAL_Driver/Inc/stm32f0xx_ll_system.h ****   *         @arg @ref LL_SYSCFG_TIM1_RMP_DMA1_CH234 (*)
 484:Drivers/STM32F0xx_HAL_Driver/Inc/stm32f0xx_ll_system.h ****   *         @arg @ref LL_SYSCFG_TIM1_RMP_DMA1_CH6 (*)
 485:Drivers/STM32F0xx_HAL_Driver/Inc/stm32f0xx_ll_system.h ****   *         @arg @ref LL_SYSCFG_TIM2_RMP_DMA1_CH34 (*)
 486:Drivers/STM32F0xx_HAL_Driver/Inc/stm32f0xx_ll_system.h ****   *         @arg @ref LL_SYSCFG_TIM2_RMP_DMA1_CH7 (*)
 487:Drivers/STM32F0xx_HAL_Driver/Inc/stm32f0xx_ll_system.h ****   *         @arg @ref LL_SYSCFG_TIM3_RMP_DMA1_CH4 (*)
 488:Drivers/STM32F0xx_HAL_Driver/Inc/stm32f0xx_ll_system.h ****   *         @arg @ref LL_SYSCFG_TIM3_RMP_DMA1_CH6 (*)
 489:Drivers/STM32F0xx_HAL_Driver/Inc/stm32f0xx_ll_system.h ****   *
 490:Drivers/STM32F0xx_HAL_Driver/Inc/stm32f0xx_ll_system.h ****   *         (*) value not defined in all devices.
 491:Drivers/STM32F0xx_HAL_Driver/Inc/stm32f0xx_ll_system.h ****   * @retval None
 492:Drivers/STM32F0xx_HAL_Driver/Inc/stm32f0xx_ll_system.h ****   */
 493:Drivers/STM32F0xx_HAL_Driver/Inc/stm32f0xx_ll_system.h **** __STATIC_INLINE void LL_SYSCFG_SetRemapDMA_TIM(uint32_t Remap)
 494:Drivers/STM32F0xx_HAL_Driver/Inc/stm32f0xx_ll_system.h **** {
 495:Drivers/STM32F0xx_HAL_Driver/Inc/stm32f0xx_ll_system.h ****   MODIFY_REG(SYSCFG->CFGR1, (Remap & 0x00FF00FFU) << 8U, (Remap & 0xFF00FF00U));
 496:Drivers/STM32F0xx_HAL_Driver/Inc/stm32f0xx_ll_system.h **** }
 497:Drivers/STM32F0xx_HAL_Driver/Inc/stm32f0xx_ll_system.h **** #endif /* SYSCFG_CFGR1_TIM16_DMA_RMP || SYSCFG_CFGR1_TIM17_DMA_RMP || SYSCFG_CFGR1_TIM1_DMA_RMP || 
 498:Drivers/STM32F0xx_HAL_Driver/Inc/stm32f0xx_ll_system.h **** 
 499:Drivers/STM32F0xx_HAL_Driver/Inc/stm32f0xx_ll_system.h **** #if defined(SYSCFG_CFGR1_PA11_PA12_RMP)
 500:Drivers/STM32F0xx_HAL_Driver/Inc/stm32f0xx_ll_system.h **** /**
 501:Drivers/STM32F0xx_HAL_Driver/Inc/stm32f0xx_ll_system.h ****   * @brief  Enable PIN pair PA11/12 mapped instead of PA9/10 (control the mapping of either
 502:Drivers/STM32F0xx_HAL_Driver/Inc/stm32f0xx_ll_system.h ****   * PA9/10 or PA11/12 pin pair on small pin-count packages)
 503:Drivers/STM32F0xx_HAL_Driver/Inc/stm32f0xx_ll_system.h ****   * @rmtoll SYSCFG_CFGR1 PA11_PA12_RMP  LL_SYSCFG_EnablePinRemap
 504:Drivers/STM32F0xx_HAL_Driver/Inc/stm32f0xx_ll_system.h ****   * @retval None
 505:Drivers/STM32F0xx_HAL_Driver/Inc/stm32f0xx_ll_system.h ****   */
 506:Drivers/STM32F0xx_HAL_Driver/Inc/stm32f0xx_ll_system.h **** __STATIC_INLINE void LL_SYSCFG_EnablePinRemap(void)
 507:Drivers/STM32F0xx_HAL_Driver/Inc/stm32f0xx_ll_system.h **** {
 508:Drivers/STM32F0xx_HAL_Driver/Inc/stm32f0xx_ll_system.h ****   SET_BIT(SYSCFG->CFGR1, SYSCFG_CFGR1_PA11_PA12_RMP);
 509:Drivers/STM32F0xx_HAL_Driver/Inc/stm32f0xx_ll_system.h **** }
 510:Drivers/STM32F0xx_HAL_Driver/Inc/stm32f0xx_ll_system.h **** 
 511:Drivers/STM32F0xx_HAL_Driver/Inc/stm32f0xx_ll_system.h **** /**
 512:Drivers/STM32F0xx_HAL_Driver/Inc/stm32f0xx_ll_system.h ****   * @brief  Disable PIN pair PA11/12 mapped instead of PA9/10 (control the mapping of either
 513:Drivers/STM32F0xx_HAL_Driver/Inc/stm32f0xx_ll_system.h ****   * PA9/10 or PA11/12 pin pair on small pin-count packages)
 514:Drivers/STM32F0xx_HAL_Driver/Inc/stm32f0xx_ll_system.h ****   * @rmtoll SYSCFG_CFGR1 PA11_PA12_RMP  LL_SYSCFG_DisablePinRemap
 515:Drivers/STM32F0xx_HAL_Driver/Inc/stm32f0xx_ll_system.h ****   * @retval None
 516:Drivers/STM32F0xx_HAL_Driver/Inc/stm32f0xx_ll_system.h ****   */
 517:Drivers/STM32F0xx_HAL_Driver/Inc/stm32f0xx_ll_system.h **** __STATIC_INLINE void LL_SYSCFG_DisablePinRemap(void)
 518:Drivers/STM32F0xx_HAL_Driver/Inc/stm32f0xx_ll_system.h **** {
 519:Drivers/STM32F0xx_HAL_Driver/Inc/stm32f0xx_ll_system.h ****   CLEAR_BIT(SYSCFG->CFGR1, SYSCFG_CFGR1_PA11_PA12_RMP);
 520:Drivers/STM32F0xx_HAL_Driver/Inc/stm32f0xx_ll_system.h **** }
 521:Drivers/STM32F0xx_HAL_Driver/Inc/stm32f0xx_ll_system.h **** #endif /* SYSCFG_CFGR1_PA11_PA12_RMP */
 522:Drivers/STM32F0xx_HAL_Driver/Inc/stm32f0xx_ll_system.h **** 
 523:Drivers/STM32F0xx_HAL_Driver/Inc/stm32f0xx_ll_system.h **** /**
 524:Drivers/STM32F0xx_HAL_Driver/Inc/stm32f0xx_ll_system.h ****   * @brief  Enable the I2C fast mode plus driving capability.
 525:Drivers/STM32F0xx_HAL_Driver/Inc/stm32f0xx_ll_system.h ****   * @rmtoll SYSCFG_CFGR1 I2C_FMP_PB6   LL_SYSCFG_EnableFastModePlus\n
 526:Drivers/STM32F0xx_HAL_Driver/Inc/stm32f0xx_ll_system.h ****   *         SYSCFG_CFGR1 I2C_FMP_PB7   LL_SYSCFG_EnableFastModePlus\n
 527:Drivers/STM32F0xx_HAL_Driver/Inc/stm32f0xx_ll_system.h ****   *         SYSCFG_CFGR1 I2C_FMP_PB8   LL_SYSCFG_EnableFastModePlus\n
 528:Drivers/STM32F0xx_HAL_Driver/Inc/stm32f0xx_ll_system.h ****   *         SYSCFG_CFGR1 I2C_FMP_PB9   LL_SYSCFG_EnableFastModePlus\n
 529:Drivers/STM32F0xx_HAL_Driver/Inc/stm32f0xx_ll_system.h ****   *         SYSCFG_CFGR1 I2C_FMP_I2C1  LL_SYSCFG_EnableFastModePlus\n
 530:Drivers/STM32F0xx_HAL_Driver/Inc/stm32f0xx_ll_system.h ****   *         SYSCFG_CFGR1 I2C_FMP_I2C2  LL_SYSCFG_EnableFastModePlus\n
 531:Drivers/STM32F0xx_HAL_Driver/Inc/stm32f0xx_ll_system.h ****   *         SYSCFG_CFGR1 I2C_FMP_PA9   LL_SYSCFG_EnableFastModePlus\n
 532:Drivers/STM32F0xx_HAL_Driver/Inc/stm32f0xx_ll_system.h ****   *         SYSCFG_CFGR1 I2C_FMP_PA10  LL_SYSCFG_EnableFastModePlus
 533:Drivers/STM32F0xx_HAL_Driver/Inc/stm32f0xx_ll_system.h ****   * @param  ConfigFastModePlus This parameter can be a combination of the following values:
 534:Drivers/STM32F0xx_HAL_Driver/Inc/stm32f0xx_ll_system.h ****   *         @arg @ref LL_SYSCFG_I2C_FASTMODEPLUS_PB6
 535:Drivers/STM32F0xx_HAL_Driver/Inc/stm32f0xx_ll_system.h ****   *         @arg @ref LL_SYSCFG_I2C_FASTMODEPLUS_PB7
 536:Drivers/STM32F0xx_HAL_Driver/Inc/stm32f0xx_ll_system.h ****   *         @arg @ref LL_SYSCFG_I2C_FASTMODEPLUS_PB8
 537:Drivers/STM32F0xx_HAL_Driver/Inc/stm32f0xx_ll_system.h ****   *         @arg @ref LL_SYSCFG_I2C_FASTMODEPLUS_PB9
 538:Drivers/STM32F0xx_HAL_Driver/Inc/stm32f0xx_ll_system.h ****   *         @arg @ref LL_SYSCFG_I2C_FASTMODEPLUS_I2C1 (*)
 539:Drivers/STM32F0xx_HAL_Driver/Inc/stm32f0xx_ll_system.h ****   *         @arg @ref LL_SYSCFG_I2C_FASTMODEPLUS_I2C2 (*)
ARM GAS  /var/folders/zf/mkqpy7tx7p1_khjt1h6hykn40000gn/T//ccF4YHcI.s 			page 42


 540:Drivers/STM32F0xx_HAL_Driver/Inc/stm32f0xx_ll_system.h ****   *         @arg @ref LL_SYSCFG_I2C_FASTMODEPLUS_PA9 (*)
 541:Drivers/STM32F0xx_HAL_Driver/Inc/stm32f0xx_ll_system.h ****   *         @arg @ref LL_SYSCFG_I2C_FASTMODEPLUS_PA10 (*)
 542:Drivers/STM32F0xx_HAL_Driver/Inc/stm32f0xx_ll_system.h ****   *
 543:Drivers/STM32F0xx_HAL_Driver/Inc/stm32f0xx_ll_system.h ****   *         (*) value not defined in all devices
 544:Drivers/STM32F0xx_HAL_Driver/Inc/stm32f0xx_ll_system.h ****   * @retval None
 545:Drivers/STM32F0xx_HAL_Driver/Inc/stm32f0xx_ll_system.h ****   */
 546:Drivers/STM32F0xx_HAL_Driver/Inc/stm32f0xx_ll_system.h **** __STATIC_INLINE void LL_SYSCFG_EnableFastModePlus(uint32_t ConfigFastModePlus)
 547:Drivers/STM32F0xx_HAL_Driver/Inc/stm32f0xx_ll_system.h **** {
 548:Drivers/STM32F0xx_HAL_Driver/Inc/stm32f0xx_ll_system.h ****   SET_BIT(SYSCFG->CFGR1, ConfigFastModePlus);
 549:Drivers/STM32F0xx_HAL_Driver/Inc/stm32f0xx_ll_system.h **** }
 550:Drivers/STM32F0xx_HAL_Driver/Inc/stm32f0xx_ll_system.h **** 
 551:Drivers/STM32F0xx_HAL_Driver/Inc/stm32f0xx_ll_system.h **** /**
 552:Drivers/STM32F0xx_HAL_Driver/Inc/stm32f0xx_ll_system.h ****   * @brief  Disable the I2C fast mode plus driving capability.
 553:Drivers/STM32F0xx_HAL_Driver/Inc/stm32f0xx_ll_system.h ****   * @rmtoll SYSCFG_CFGR1 I2C_FMP_PB6   LL_SYSCFG_DisableFastModePlus\n
 554:Drivers/STM32F0xx_HAL_Driver/Inc/stm32f0xx_ll_system.h ****   *         SYSCFG_CFGR1 I2C_FMP_PB7   LL_SYSCFG_DisableFastModePlus\n
 555:Drivers/STM32F0xx_HAL_Driver/Inc/stm32f0xx_ll_system.h ****   *         SYSCFG_CFGR1 I2C_FMP_PB8   LL_SYSCFG_DisableFastModePlus\n
 556:Drivers/STM32F0xx_HAL_Driver/Inc/stm32f0xx_ll_system.h ****   *         SYSCFG_CFGR1 I2C_FMP_PB9   LL_SYSCFG_DisableFastModePlus\n
 557:Drivers/STM32F0xx_HAL_Driver/Inc/stm32f0xx_ll_system.h ****   *         SYSCFG_CFGR1 I2C_FMP_I2C1  LL_SYSCFG_DisableFastModePlus\n
 558:Drivers/STM32F0xx_HAL_Driver/Inc/stm32f0xx_ll_system.h ****   *         SYSCFG_CFGR1 I2C_FMP_I2C2  LL_SYSCFG_DisableFastModePlus\n
 559:Drivers/STM32F0xx_HAL_Driver/Inc/stm32f0xx_ll_system.h ****   *         SYSCFG_CFGR1 I2C_FMP_PA9   LL_SYSCFG_DisableFastModePlus\n
 560:Drivers/STM32F0xx_HAL_Driver/Inc/stm32f0xx_ll_system.h ****   *         SYSCFG_CFGR1 I2C_FMP_PA10  LL_SYSCFG_DisableFastModePlus
 561:Drivers/STM32F0xx_HAL_Driver/Inc/stm32f0xx_ll_system.h ****   * @param  ConfigFastModePlus This parameter can be a combination of the following values:
 562:Drivers/STM32F0xx_HAL_Driver/Inc/stm32f0xx_ll_system.h ****   *         @arg @ref LL_SYSCFG_I2C_FASTMODEPLUS_PB6
 563:Drivers/STM32F0xx_HAL_Driver/Inc/stm32f0xx_ll_system.h ****   *         @arg @ref LL_SYSCFG_I2C_FASTMODEPLUS_PB7
 564:Drivers/STM32F0xx_HAL_Driver/Inc/stm32f0xx_ll_system.h ****   *         @arg @ref LL_SYSCFG_I2C_FASTMODEPLUS_PB8
 565:Drivers/STM32F0xx_HAL_Driver/Inc/stm32f0xx_ll_system.h ****   *         @arg @ref LL_SYSCFG_I2C_FASTMODEPLUS_PB9
 566:Drivers/STM32F0xx_HAL_Driver/Inc/stm32f0xx_ll_system.h ****   *         @arg @ref LL_SYSCFG_I2C_FASTMODEPLUS_I2C1 (*)
 567:Drivers/STM32F0xx_HAL_Driver/Inc/stm32f0xx_ll_system.h ****   *         @arg @ref LL_SYSCFG_I2C_FASTMODEPLUS_I2C2 (*)
 568:Drivers/STM32F0xx_HAL_Driver/Inc/stm32f0xx_ll_system.h ****   *         @arg @ref LL_SYSCFG_I2C_FASTMODEPLUS_PA9 (*)
 569:Drivers/STM32F0xx_HAL_Driver/Inc/stm32f0xx_ll_system.h ****   *         @arg @ref LL_SYSCFG_I2C_FASTMODEPLUS_PA10 (*)
 570:Drivers/STM32F0xx_HAL_Driver/Inc/stm32f0xx_ll_system.h ****   *
 571:Drivers/STM32F0xx_HAL_Driver/Inc/stm32f0xx_ll_system.h ****   *         (*) value not defined in all devices
 572:Drivers/STM32F0xx_HAL_Driver/Inc/stm32f0xx_ll_system.h ****   * @retval None
 573:Drivers/STM32F0xx_HAL_Driver/Inc/stm32f0xx_ll_system.h ****   */
 574:Drivers/STM32F0xx_HAL_Driver/Inc/stm32f0xx_ll_system.h **** __STATIC_INLINE void LL_SYSCFG_DisableFastModePlus(uint32_t ConfigFastModePlus)
 575:Drivers/STM32F0xx_HAL_Driver/Inc/stm32f0xx_ll_system.h **** {
 576:Drivers/STM32F0xx_HAL_Driver/Inc/stm32f0xx_ll_system.h ****   CLEAR_BIT(SYSCFG->CFGR1, ConfigFastModePlus);
 577:Drivers/STM32F0xx_HAL_Driver/Inc/stm32f0xx_ll_system.h **** }
 578:Drivers/STM32F0xx_HAL_Driver/Inc/stm32f0xx_ll_system.h **** 
 579:Drivers/STM32F0xx_HAL_Driver/Inc/stm32f0xx_ll_system.h **** /**
 580:Drivers/STM32F0xx_HAL_Driver/Inc/stm32f0xx_ll_system.h ****   * @brief  Configure source input for the EXTI external interrupt.
 581:Drivers/STM32F0xx_HAL_Driver/Inc/stm32f0xx_ll_system.h ****   * @rmtoll SYSCFG_EXTICR1 EXTI0         LL_SYSCFG_SetEXTISource\n
 582:Drivers/STM32F0xx_HAL_Driver/Inc/stm32f0xx_ll_system.h ****   *         SYSCFG_EXTICR1 EXTI1         LL_SYSCFG_SetEXTISource\n
 583:Drivers/STM32F0xx_HAL_Driver/Inc/stm32f0xx_ll_system.h ****   *         SYSCFG_EXTICR1 EXTI2         LL_SYSCFG_SetEXTISource\n
 584:Drivers/STM32F0xx_HAL_Driver/Inc/stm32f0xx_ll_system.h ****   *         SYSCFG_EXTICR1 EXTI3         LL_SYSCFG_SetEXTISource\n
 585:Drivers/STM32F0xx_HAL_Driver/Inc/stm32f0xx_ll_system.h ****   *         SYSCFG_EXTICR2 EXTI4         LL_SYSCFG_SetEXTISource\n
 586:Drivers/STM32F0xx_HAL_Driver/Inc/stm32f0xx_ll_system.h ****   *         SYSCFG_EXTICR2 EXTI5         LL_SYSCFG_SetEXTISource\n
 587:Drivers/STM32F0xx_HAL_Driver/Inc/stm32f0xx_ll_system.h ****   *         SYSCFG_EXTICR2 EXTI6         LL_SYSCFG_SetEXTISource\n
 588:Drivers/STM32F0xx_HAL_Driver/Inc/stm32f0xx_ll_system.h ****   *         SYSCFG_EXTICR2 EXTI7         LL_SYSCFG_SetEXTISource\n
 589:Drivers/STM32F0xx_HAL_Driver/Inc/stm32f0xx_ll_system.h ****   *         SYSCFG_EXTICR3 EXTI8         LL_SYSCFG_SetEXTISource\n
 590:Drivers/STM32F0xx_HAL_Driver/Inc/stm32f0xx_ll_system.h ****   *         SYSCFG_EXTICR3 EXTI9         LL_SYSCFG_SetEXTISource\n
 591:Drivers/STM32F0xx_HAL_Driver/Inc/stm32f0xx_ll_system.h ****   *         SYSCFG_EXTICR3 EXTI10        LL_SYSCFG_SetEXTISource\n
 592:Drivers/STM32F0xx_HAL_Driver/Inc/stm32f0xx_ll_system.h ****   *         SYSCFG_EXTICR3 EXTI11        LL_SYSCFG_SetEXTISource\n
 593:Drivers/STM32F0xx_HAL_Driver/Inc/stm32f0xx_ll_system.h ****   *         SYSCFG_EXTICR4 EXTI12        LL_SYSCFG_SetEXTISource\n
 594:Drivers/STM32F0xx_HAL_Driver/Inc/stm32f0xx_ll_system.h ****   *         SYSCFG_EXTICR4 EXTI13        LL_SYSCFG_SetEXTISource\n
 595:Drivers/STM32F0xx_HAL_Driver/Inc/stm32f0xx_ll_system.h ****   *         SYSCFG_EXTICR4 EXTI14        LL_SYSCFG_SetEXTISource\n
 596:Drivers/STM32F0xx_HAL_Driver/Inc/stm32f0xx_ll_system.h ****   *         SYSCFG_EXTICR4 EXTI15        LL_SYSCFG_SetEXTISource
ARM GAS  /var/folders/zf/mkqpy7tx7p1_khjt1h6hykn40000gn/T//ccF4YHcI.s 			page 43


 597:Drivers/STM32F0xx_HAL_Driver/Inc/stm32f0xx_ll_system.h ****   * @param  Port This parameter can be one of the following values:
 598:Drivers/STM32F0xx_HAL_Driver/Inc/stm32f0xx_ll_system.h ****   *         @arg @ref LL_SYSCFG_EXTI_PORTA
 599:Drivers/STM32F0xx_HAL_Driver/Inc/stm32f0xx_ll_system.h ****   *         @arg @ref LL_SYSCFG_EXTI_PORTB
 600:Drivers/STM32F0xx_HAL_Driver/Inc/stm32f0xx_ll_system.h ****   *         @arg @ref LL_SYSCFG_EXTI_PORTC
 601:Drivers/STM32F0xx_HAL_Driver/Inc/stm32f0xx_ll_system.h ****   *         @arg @ref LL_SYSCFG_EXTI_PORTD (*)
 602:Drivers/STM32F0xx_HAL_Driver/Inc/stm32f0xx_ll_system.h ****   *         @arg @ref LL_SYSCFG_EXTI_PORTE (*)
 603:Drivers/STM32F0xx_HAL_Driver/Inc/stm32f0xx_ll_system.h ****   *         @arg @ref LL_SYSCFG_EXTI_PORTF
 604:Drivers/STM32F0xx_HAL_Driver/Inc/stm32f0xx_ll_system.h ****   *
 605:Drivers/STM32F0xx_HAL_Driver/Inc/stm32f0xx_ll_system.h ****   *         (*) value not defined in all devices
 606:Drivers/STM32F0xx_HAL_Driver/Inc/stm32f0xx_ll_system.h ****   * @param  Line This parameter can be one of the following values:
 607:Drivers/STM32F0xx_HAL_Driver/Inc/stm32f0xx_ll_system.h ****   *         @arg @ref LL_SYSCFG_EXTI_LINE0
 608:Drivers/STM32F0xx_HAL_Driver/Inc/stm32f0xx_ll_system.h ****   *         @arg @ref LL_SYSCFG_EXTI_LINE1
 609:Drivers/STM32F0xx_HAL_Driver/Inc/stm32f0xx_ll_system.h ****   *         @arg @ref LL_SYSCFG_EXTI_LINE2
 610:Drivers/STM32F0xx_HAL_Driver/Inc/stm32f0xx_ll_system.h ****   *         @arg @ref LL_SYSCFG_EXTI_LINE3
 611:Drivers/STM32F0xx_HAL_Driver/Inc/stm32f0xx_ll_system.h ****   *         @arg @ref LL_SYSCFG_EXTI_LINE4
 612:Drivers/STM32F0xx_HAL_Driver/Inc/stm32f0xx_ll_system.h ****   *         @arg @ref LL_SYSCFG_EXTI_LINE5
 613:Drivers/STM32F0xx_HAL_Driver/Inc/stm32f0xx_ll_system.h ****   *         @arg @ref LL_SYSCFG_EXTI_LINE6
 614:Drivers/STM32F0xx_HAL_Driver/Inc/stm32f0xx_ll_system.h ****   *         @arg @ref LL_SYSCFG_EXTI_LINE7
 615:Drivers/STM32F0xx_HAL_Driver/Inc/stm32f0xx_ll_system.h ****   *         @arg @ref LL_SYSCFG_EXTI_LINE8
 616:Drivers/STM32F0xx_HAL_Driver/Inc/stm32f0xx_ll_system.h ****   *         @arg @ref LL_SYSCFG_EXTI_LINE9
 617:Drivers/STM32F0xx_HAL_Driver/Inc/stm32f0xx_ll_system.h ****   *         @arg @ref LL_SYSCFG_EXTI_LINE10
 618:Drivers/STM32F0xx_HAL_Driver/Inc/stm32f0xx_ll_system.h ****   *         @arg @ref LL_SYSCFG_EXTI_LINE11
 619:Drivers/STM32F0xx_HAL_Driver/Inc/stm32f0xx_ll_system.h ****   *         @arg @ref LL_SYSCFG_EXTI_LINE12
 620:Drivers/STM32F0xx_HAL_Driver/Inc/stm32f0xx_ll_system.h ****   *         @arg @ref LL_SYSCFG_EXTI_LINE13
 621:Drivers/STM32F0xx_HAL_Driver/Inc/stm32f0xx_ll_system.h ****   *         @arg @ref LL_SYSCFG_EXTI_LINE14
 622:Drivers/STM32F0xx_HAL_Driver/Inc/stm32f0xx_ll_system.h ****   *         @arg @ref LL_SYSCFG_EXTI_LINE15
 623:Drivers/STM32F0xx_HAL_Driver/Inc/stm32f0xx_ll_system.h ****   * @retval None
 624:Drivers/STM32F0xx_HAL_Driver/Inc/stm32f0xx_ll_system.h ****   */
 625:Drivers/STM32F0xx_HAL_Driver/Inc/stm32f0xx_ll_system.h **** __STATIC_INLINE void LL_SYSCFG_SetEXTISource(uint32_t Port, uint32_t Line)
 163              		.loc 4 625 22 view .LVU41
 164              	.LBB57:
 626:Drivers/STM32F0xx_HAL_Driver/Inc/stm32f0xx_ll_system.h **** {
 627:Drivers/STM32F0xx_HAL_Driver/Inc/stm32f0xx_ll_system.h ****   MODIFY_REG(SYSCFG->EXTICR[Line & 0xFF], SYSCFG_EXTICR1_EXTI0 << (Line >> 16), Port << (Line >> 16
 165              		.loc 4 627 3 view .LVU42
 166 0062 1D4A     		ldr	r2, .L2+8
 167 0064 9368     		ldr	r3, [r2, #8]
 168 0066 0F21     		movs	r1, #15
 169 0068 8B43     		bics	r3, r1
 170 006a 9360     		str	r3, [r2, #8]
 171              	.LVL7:
 172              		.loc 4 627 3 is_stmt 0 view .LVU43
 173              	.LBE57:
 174              	.LBE56:
 525:Core/Src/main.c **** 
 526:Core/Src/main.c **** 	/**/
 527:Core/Src/main.c **** 	LL_GPIO_SetPinPull(Button0_GPIO_Port, Button0_Pin, LL_GPIO_PULL_UP);
 175              		.loc 1 527 2 is_stmt 1 view .LVU44
 176              	.LBB58:
 177              	.LBI58:
 473:Drivers/STM32F0xx_HAL_Driver/Inc/stm32f0xx_ll_gpio.h **** {
 178              		.loc 3 473 22 view .LVU45
 179              	.LBB59:
 475:Drivers/STM32F0xx_HAL_Driver/Inc/stm32f0xx_ll_gpio.h **** }
 180              		.loc 3 475 3 view .LVU46
 181 006c 9022     		movs	r2, #144
 182 006e D205     		lsls	r2, r2, #23
 183 0070 D368     		ldr	r3, [r2, #12]
ARM GAS  /var/folders/zf/mkqpy7tx7p1_khjt1h6hykn40000gn/T//ccF4YHcI.s 			page 44


 184 0072 0C39     		subs	r1, r1, #12
 185 0074 8B43     		bics	r3, r1
 186 0076 2343     		orrs	r3, r4
 187 0078 D360     		str	r3, [r2, #12]
 188              	.LVL8:
 475:Drivers/STM32F0xx_HAL_Driver/Inc/stm32f0xx_ll_gpio.h **** }
 189              		.loc 3 475 3 is_stmt 0 view .LVU47
 190              	.LBE59:
 191              	.LBE58:
 528:Core/Src/main.c **** 
 529:Core/Src/main.c **** 	/**/
 530:Core/Src/main.c **** 	LL_GPIO_SetPinMode(Button0_GPIO_Port, Button0_Pin, LL_GPIO_MODE_INPUT);
 192              		.loc 1 530 2 is_stmt 1 view .LVU48
 193              	.LBB60:
 194              	.LBI60:
 267:Drivers/STM32F0xx_HAL_Driver/Inc/stm32f0xx_ll_gpio.h **** {
 195              		.loc 3 267 22 view .LVU49
 196              	.LBB61:
 269:Drivers/STM32F0xx_HAL_Driver/Inc/stm32f0xx_ll_gpio.h **** }
 197              		.loc 3 269 3 view .LVU50
 198 007a 1368     		ldr	r3, [r2]
 199 007c 8B43     		bics	r3, r1
 200 007e 1360     		str	r3, [r2]
 201              	.LVL9:
 269:Drivers/STM32F0xx_HAL_Driver/Inc/stm32f0xx_ll_gpio.h **** }
 202              		.loc 3 269 3 is_stmt 0 view .LVU51
 203              	.LBE61:
 204              	.LBE60:
 531:Core/Src/main.c **** 
 532:Core/Src/main.c **** 	/**/
 533:Core/Src/main.c **** 	EXTI_InitStruct.Line_0_31 = LL_EXTI_LINE_0;
 205              		.loc 1 533 2 is_stmt 1 view .LVU52
 206              		.loc 1 533 28 is_stmt 0 view .LVU53
 207 0080 0A94     		str	r4, [sp, #40]
 534:Core/Src/main.c **** 	EXTI_InitStruct.LineCommand = ENABLE;
 208              		.loc 1 534 2 is_stmt 1 view .LVU54
 209              		.loc 1 534 30 is_stmt 0 view .LVU55
 210 0082 3471     		strb	r4, [r6, #4]
 535:Core/Src/main.c **** 	EXTI_InitStruct.Mode = LL_EXTI_MODE_IT;
 211              		.loc 1 535 2 is_stmt 1 view .LVU56
 212              		.loc 1 535 23 is_stmt 0 view .LVU57
 213 0084 0025     		movs	r5, #0
 214 0086 7571     		strb	r5, [r6, #5]
 536:Core/Src/main.c **** 	EXTI_InitStruct.Trigger = LL_EXTI_TRIGGER_RISING;
 215              		.loc 1 536 2 is_stmt 1 view .LVU58
 216              		.loc 1 536 26 is_stmt 0 view .LVU59
 217 0088 B471     		strb	r4, [r6, #6]
 537:Core/Src/main.c **** 	LL_EXTI_Init(&EXTI_InitStruct);
 218              		.loc 1 537 2 is_stmt 1 view .LVU60
 219 008a 3000     		movs	r0, r6
 220 008c FFF7FEFF 		bl	LL_EXTI_Init
 221              	.LVL10:
 538:Core/Src/main.c **** 
 539:Core/Src/main.c **** 	/**/
 540:Core/Src/main.c **** 	GPIO_InitStruct.Pin = LED_data_Pin;
 222              		.loc 1 540 2 view .LVU61
 223              		.loc 1 540 22 is_stmt 0 view .LVU62
ARM GAS  /var/folders/zf/mkqpy7tx7p1_khjt1h6hykn40000gn/T//ccF4YHcI.s 			page 45


 224 0090 0494     		str	r4, [sp, #16]
 541:Core/Src/main.c **** 	GPIO_InitStruct.Mode = LL_GPIO_MODE_OUTPUT;
 225              		.loc 1 541 2 is_stmt 1 view .LVU63
 226              		.loc 1 541 23 is_stmt 0 view .LVU64
 227 0092 0594     		str	r4, [sp, #20]
 542:Core/Src/main.c **** 	GPIO_InitStruct.Speed = LL_GPIO_SPEED_FREQ_LOW;
 228              		.loc 1 542 2 is_stmt 1 view .LVU65
 229              		.loc 1 542 24 is_stmt 0 view .LVU66
 230 0094 0695     		str	r5, [sp, #24]
 543:Core/Src/main.c **** 	GPIO_InitStruct.OutputType = LL_GPIO_OUTPUT_PUSHPULL;
 231              		.loc 1 543 2 is_stmt 1 view .LVU67
 232              		.loc 1 543 29 is_stmt 0 view .LVU68
 233 0096 0795     		str	r5, [sp, #28]
 544:Core/Src/main.c **** 	GPIO_InitStruct.Pull = LL_GPIO_PULL_NO;
 234              		.loc 1 544 2 is_stmt 1 view .LVU69
 235              		.loc 1 544 23 is_stmt 0 view .LVU70
 236 0098 0895     		str	r5, [sp, #32]
 545:Core/Src/main.c **** 	LL_GPIO_Init(LED_data_GPIO_Port, &GPIO_InitStruct);
 237              		.loc 1 545 2 is_stmt 1 view .LVU71
 238 009a 04A9     		add	r1, sp, #16
 239 009c 3800     		movs	r0, r7
 240 009e FFF7FEFF 		bl	LL_GPIO_Init
 241              	.LVL11:
 546:Core/Src/main.c **** 
 547:Core/Src/main.c **** 	/**/
 548:Core/Src/main.c **** 	GPIO_InitStruct.Pin = LED7_Pin;
 242              		.loc 1 548 2 view .LVU72
 243              		.loc 1 548 22 is_stmt 0 view .LVU73
 244 00a2 4346     		mov	r3, r8
 245 00a4 0493     		str	r3, [sp, #16]
 549:Core/Src/main.c **** 	GPIO_InitStruct.Mode = LL_GPIO_MODE_OUTPUT;
 246              		.loc 1 549 2 is_stmt 1 view .LVU74
 247              		.loc 1 549 23 is_stmt 0 view .LVU75
 248 00a6 0594     		str	r4, [sp, #20]
 550:Core/Src/main.c **** 	GPIO_InitStruct.Speed = LL_GPIO_SPEED_FREQ_LOW;
 249              		.loc 1 550 2 is_stmt 1 view .LVU76
 250              		.loc 1 550 24 is_stmt 0 view .LVU77
 251 00a8 0695     		str	r5, [sp, #24]
 551:Core/Src/main.c **** 	GPIO_InitStruct.OutputType = LL_GPIO_OUTPUT_PUSHPULL;
 252              		.loc 1 551 2 is_stmt 1 view .LVU78
 253              		.loc 1 551 29 is_stmt 0 view .LVU79
 254 00aa 0795     		str	r5, [sp, #28]
 552:Core/Src/main.c **** 	GPIO_InitStruct.Pull = LL_GPIO_PULL_NO;
 255              		.loc 1 552 2 is_stmt 1 view .LVU80
 256              		.loc 1 552 23 is_stmt 0 view .LVU81
 257 00ac 0895     		str	r5, [sp, #32]
 553:Core/Src/main.c **** 	LL_GPIO_Init(LED7_GPIO_Port, &GPIO_InitStruct);
 258              		.loc 1 553 2 is_stmt 1 view .LVU82
 259 00ae 04A9     		add	r1, sp, #16
 260 00b0 3800     		movs	r0, r7
 261 00b2 FFF7FEFF 		bl	LL_GPIO_Init
 262              	.LVL12:
 554:Core/Src/main.c **** 
 555:Core/Src/main.c **** 	/* USER CODE BEGIN MX_GPIO_Init_2 */
 556:Core/Src/main.c **** 	HAL_NVIC_SetPriority(EXTI0_1_IRQn, 0, 0);
 263              		.loc 1 556 2 view .LVU83
 264 00b6 0022     		movs	r2, #0
ARM GAS  /var/folders/zf/mkqpy7tx7p1_khjt1h6hykn40000gn/T//ccF4YHcI.s 			page 46


 265 00b8 0021     		movs	r1, #0
 266 00ba 0520     		movs	r0, #5
 267 00bc FFF7FEFF 		bl	HAL_NVIC_SetPriority
 268              	.LVL13:
 557:Core/Src/main.c **** 	HAL_NVIC_EnableIRQ(EXTI0_1_IRQn);
 269              		.loc 1 557 2 view .LVU84
 270 00c0 0520     		movs	r0, #5
 271 00c2 FFF7FEFF 		bl	HAL_NVIC_EnableIRQ
 272              	.LVL14:
 558:Core/Src/main.c **** 	/* USER CODE END MX_GPIO_Init_2 */
 559:Core/Src/main.c **** }
 273              		.loc 1 559 1 is_stmt 0 view .LVU85
 274 00c6 0CB0     		add	sp, sp, #48
 275              		@ sp needed
 276 00c8 80BC     		pop	{r7}
 277 00ca B846     		mov	r8, r7
 278 00cc F0BD     		pop	{r4, r5, r6, r7, pc}
 279              	.L3:
 280 00ce C046     		.align	2
 281              	.L2:
 282 00d0 00100240 		.word	1073876992
 283 00d4 00040048 		.word	1207960576
 284 00d8 00000140 		.word	1073807360
 285              		.cfi_endproc
 286              	.LFE366:
 288              		.section	.text.delay,"ax",%progbits
 289              		.align	1
 290              		.global	delay
 291              		.syntax unified
 292              		.code	16
 293              		.thumb_func
 295              	delay:
 296              	.LVL15:
 297              	.LFB351:
 298              		.file 5 "Core/Inc/lcd_stm32f0.c"
   1:Core/Inc/lcd_stm32f0.c **** //********************************************************************
   2:Core/Inc/lcd_stm32f0.c **** //*                      EEE2046F STM32F0                            *
   3:Core/Inc/lcd_stm32f0.c **** //*                         LCD MODULE                               *
   4:Core/Inc/lcd_stm32f0.c **** //*==================================================================*
   5:Core/Inc/lcd_stm32f0.c **** //* WRITTEN BY:    Copyright (C) Samuel Ginsberg 2004                *
   6:Core/Inc/lcd_stm32f0.c **** //* PORTED TO STM32F0 dev board by James Gowans, 2014                *
   7:Core/Inc/lcd_stm32f0.c **** //* MODIFIED BY:   Robyn Verrinder                                   *
   8:Core/Inc/lcd_stm32f0.c **** //* DATE CREATED:  2004                                              *
   9:Core/Inc/lcd_stm32f0.c **** //* PORTED:	   2014						     *
  10:Core/Inc/lcd_stm32f0.c **** //* MODIFIED:      03-08-2015                                        *
  11:Core/Inc/lcd_stm32f0.c **** //*==================================================================*
  12:Core/Inc/lcd_stm32f0.c **** //* PROGRAMMED IN: ECLIPSE IDE Luna Service Release 1 (4.4.1)        *
  13:Core/Inc/lcd_stm32f0.c **** //* DEV. BOARD:    UCT STM32 Development Board                       *
  14:Core/Inc/lcd_stm32f0.c **** //* TARGET:	   STMicroelectronics STM32F051C6                    *
  15:Core/Inc/lcd_stm32f0.c **** //*==================================================================*
  16:Core/Inc/lcd_stm32f0.c **** //* DESCRIPTION:   This code contains common functions to communicate*
  17:Core/Inc/lcd_stm32f0.c **** //*                with the LCD module connected to the STM32 uC.    *
  18:Core/Inc/lcd_stm32f0.c **** //*==================================================================*
  19:Core/Inc/lcd_stm32f0.c **** //* LCD SETUP:     - 4 bit mode      (Upper 4 data lines D4-D7 used) *
  20:Core/Inc/lcd_stm32f0.c **** //*                - Two lines used                                  *
  21:Core/Inc/lcd_stm32f0.c **** //*                - Flashing cursor                                 *
  22:Core/Inc/lcd_stm32f0.c **** //*==================================================================*
ARM GAS  /var/folders/zf/mkqpy7tx7p1_khjt1h6hykn40000gn/T//ccF4YHcI.s 			page 47


  23:Core/Inc/lcd_stm32f0.c **** //* CONNECTIONS:                                                     *
  24:Core/Inc/lcd_stm32f0.c **** //*------------------------------------------------------------------*
  25:Core/Inc/lcd_stm32f0.c **** //* LCD PINS   | NAME                    | CONNECTED TO              *
  26:Core/Inc/lcd_stm32f0.c **** //*------------------------------------------------------------------*
  27:Core/Inc/lcd_stm32f0.c **** //* 1............VSS.......................GND                       *
  28:Core/Inc/lcd_stm32f0.c **** //* 2............VDD.......................+5V                       *
  29:Core/Inc/lcd_stm32f0.c **** //* 3............CONTRAST..................POT 2                     *
  30:Core/Inc/lcd_stm32f0.c **** //* 4............RS  - Register Select.....PC14 (LCD_RS)             *
  31:Core/Inc/lcd_stm32f0.c **** //* 5............RW  - Read/Write..........GND                       *
  32:Core/Inc/lcd_stm32f0.c **** //* 6............E   - Enable..............PC15 (LCD_E)              *
  33:Core/Inc/lcd_stm32f0.c **** //* 7............D0  - Data line 0.........GND                       *
  34:Core/Inc/lcd_stm32f0.c **** //* 8............D1  - Data line 1.........GND                       *
  35:Core/Inc/lcd_stm32f0.c **** //* 9............D2  - Data line 2.........GND                       *
  36:Core/Inc/lcd_stm32f0.c **** //* 10...........D3  - Data line 3.........GND                       *
  37:Core/Inc/lcd_stm32f0.c **** //* 11...........D4  - Data line 4.........PB8  (LCD_D4)             *
  38:Core/Inc/lcd_stm32f0.c **** //* 12...........D5  - Data line 5.........PB9  (LCD_D5)             *
  39:Core/Inc/lcd_stm32f0.c **** //* 13...........D6  - Data line 6.........PA12 (LCD_D6)             *
  40:Core/Inc/lcd_stm32f0.c **** //* 14...........D7  - Data line 7.........PA15 (LCD_D7)             *
  41:Core/Inc/lcd_stm32f0.c **** //* 15...........CATHLED...................NC                        *
  42:Core/Inc/lcd_stm32f0.c **** //* 16...........ANODELED..................NC                        *
  43:Core/Inc/lcd_stm32f0.c **** //********************************************************************
  44:Core/Inc/lcd_stm32f0.c **** // INCLUDE FILES
  45:Core/Inc/lcd_stm32f0.c **** //====================================================================
  46:Core/Inc/lcd_stm32f0.c **** #include "lcd_stm32f0.h"
  47:Core/Inc/lcd_stm32f0.c **** #include "stm32f0xx.h"
  48:Core/Inc/lcd_stm32f0.c **** //====================================================================
  49:Core/Inc/lcd_stm32f0.c **** // SEND COMMAND CODE TO LCD - LCD_Command(command)
  50:Core/Inc/lcd_stm32f0.c **** //====================================================================
  51:Core/Inc/lcd_stm32f0.c **** // DESCRIPTION: This function sends a command to the LCD. Care is taken
  52:Core/Inc/lcd_stm32f0.c **** //              not to interfere with the other lines on the port.
  53:Core/Inc/lcd_stm32f0.c **** //
  54:Core/Inc/lcd_stm32f0.c **** //              As we are using a microcontroller to control the LCD
  55:Core/Inc/lcd_stm32f0.c **** //              we use 4-bit mode to save on number of lines used to
  56:Core/Inc/lcd_stm32f0.c **** //              connect to the LCD. This means that an 8-bit command
  57:Core/Inc/lcd_stm32f0.c **** //              must be split into two sets of 4-bits (upper and lower)
  58:Core/Inc/lcd_stm32f0.c **** //              These sets must be transmitted
  59:Core/Inc/lcd_stm32f0.c **** //====================================================================
  60:Core/Inc/lcd_stm32f0.c **** // USEFUL COMMANDS:
  61:Core/Inc/lcd_stm32f0.c **** //                  - POWER_UP:      Power up initialization for the lcd
  62:Core/Inc/lcd_stm32f0.c **** //                  - FOURBIT_MODE:  Sets LCD for 4-bit mode
  63:Core/Inc/lcd_stm32f0.c **** //                  - TWOLINE_MODE:  Sets up 2 lines and character size
  64:Core/Inc/lcd_stm32f0.c **** //                  - SETUP_CURSOR:  Turn display on and set up cursor
  65:Core/Inc/lcd_stm32f0.c **** //                  - CLEAR:         Clear screen
  66:Core/Inc/lcd_stm32f0.c **** //                  - CURSOR_HOME:   Cursor home
  67:Core/Inc/lcd_stm32f0.c **** //                  - LINE_TWO:      Line 2
  68:Core/Inc/lcd_stm32f0.c **** //
  69:Core/Inc/lcd_stm32f0.c **** //====================================================================
  70:Core/Inc/lcd_stm32f0.c **** 
  71:Core/Inc/lcd_stm32f0.c **** void lcd_command(unsigned char command)
  72:Core/Inc/lcd_stm32f0.c **** {
  73:Core/Inc/lcd_stm32f0.c ****     GPIOC->BSRR |= LCD_RS_RESET;	// Register Select (RS)line low (data sent will now be read as com
  74:Core/Inc/lcd_stm32f0.c **** 
  75:Core/Inc/lcd_stm32f0.c **** // Put upper nibble (upper 4-bits) on data lines, command mode
  76:Core/Inc/lcd_stm32f0.c **** // DATALINE 7
  77:Core/Inc/lcd_stm32f0.c ****     if ((command & 0x80) != 0)		// Select bit 7 of command, if HIGH set Data line 7 (D7) 
  78:Core/Inc/lcd_stm32f0.c ****     {
  79:Core/Inc/lcd_stm32f0.c ****     	GPIOA->BSRR |= LCD_D7_SET;
ARM GAS  /var/folders/zf/mkqpy7tx7p1_khjt1h6hykn40000gn/T//ccF4YHcI.s 			page 48


  80:Core/Inc/lcd_stm32f0.c ****     }
  81:Core/Inc/lcd_stm32f0.c ****     else				// else RESET D7
  82:Core/Inc/lcd_stm32f0.c ****     {
  83:Core/Inc/lcd_stm32f0.c ****     	GPIOA->BSRR |= LCD_D7_RESET;
  84:Core/Inc/lcd_stm32f0.c ****     }
  85:Core/Inc/lcd_stm32f0.c **** // DATALINE 6
  86:Core/Inc/lcd_stm32f0.c ****     if ((command & 0x40) != 0)		// Select bit 6 of command, if HIGH set Data line 6 (D6) 
  87:Core/Inc/lcd_stm32f0.c ****     {
  88:Core/Inc/lcd_stm32f0.c ****         GPIOA->BSRR |= LCD_D6_SET;
  89:Core/Inc/lcd_stm32f0.c ****     }
  90:Core/Inc/lcd_stm32f0.c ****     else				// else RESET D6
  91:Core/Inc/lcd_stm32f0.c ****     {
  92:Core/Inc/lcd_stm32f0.c ****         GPIOA->BSRR |= LCD_D6_RESET;
  93:Core/Inc/lcd_stm32f0.c ****     }
  94:Core/Inc/lcd_stm32f0.c **** // DATALINE 5
  95:Core/Inc/lcd_stm32f0.c ****     if ((command & 0x20) != 0)		// Select bit 5 of command, if HIGH set Data line 5 (D5)
  96:Core/Inc/lcd_stm32f0.c ****     {
  97:Core/Inc/lcd_stm32f0.c ****     	GPIOB->BSRR |= LCD_D5_SET;	
  98:Core/Inc/lcd_stm32f0.c ****     }
  99:Core/Inc/lcd_stm32f0.c ****     else				// else RESET D5
 100:Core/Inc/lcd_stm32f0.c ****     {
 101:Core/Inc/lcd_stm32f0.c ****     	GPIOB->BSRR |= LCD_D5_RESET;
 102:Core/Inc/lcd_stm32f0.c ****     }
 103:Core/Inc/lcd_stm32f0.c **** // DATALINE 4
 104:Core/Inc/lcd_stm32f0.c ****     if ((command & 0x10) != 0)		// Select bit 4 of command, if HIGH set Data line 4 (D4)
 105:Core/Inc/lcd_stm32f0.c ****     {
 106:Core/Inc/lcd_stm32f0.c ****     	GPIOB->BSRR |= LCD_D4_SET;
 107:Core/Inc/lcd_stm32f0.c ****     }
 108:Core/Inc/lcd_stm32f0.c ****     else				//  else RESET D4
 109:Core/Inc/lcd_stm32f0.c ****     {
 110:Core/Inc/lcd_stm32f0.c ****     	GPIOB->BSRR |= LCD_D4_RESET;
 111:Core/Inc/lcd_stm32f0.c ****     }
 112:Core/Inc/lcd_stm32f0.c **** 
 113:Core/Inc/lcd_stm32f0.c ****     pulse_strobe ();			// Send data
 114:Core/Inc/lcd_stm32f0.c **** 
 115:Core/Inc/lcd_stm32f0.c **** // lower nibble to data lines
 116:Core/Inc/lcd_stm32f0.c ****     if ((command & 0x08) != 0)		// Select bit 3 of command, if HIGH set Data line 7 (D7) 
 117:Core/Inc/lcd_stm32f0.c ****     {
 118:Core/Inc/lcd_stm32f0.c ****     	GPIOA->BSRR |= LCD_D7_SET;
 119:Core/Inc/lcd_stm32f0.c ****     }
 120:Core/Inc/lcd_stm32f0.c ****     else				// else RESET D7
 121:Core/Inc/lcd_stm32f0.c ****     {
 122:Core/Inc/lcd_stm32f0.c ****     	GPIOA->BSRR |= LCD_D7_RESET;
 123:Core/Inc/lcd_stm32f0.c ****     }
 124:Core/Inc/lcd_stm32f0.c **** // DATALINE 6
 125:Core/Inc/lcd_stm32f0.c ****     if ((command & 0x04) != 0)		// Select bit 2 of command, if HIGH set Data line 6 (D6)
 126:Core/Inc/lcd_stm32f0.c ****     {
 127:Core/Inc/lcd_stm32f0.c ****         GPIOA->BSRR |= LCD_D6_SET;
 128:Core/Inc/lcd_stm32f0.c ****     }
 129:Core/Inc/lcd_stm32f0.c ****     else				//  else RESET D6
 130:Core/Inc/lcd_stm32f0.c ****     {
 131:Core/Inc/lcd_stm32f0.c ****         GPIOA->BSRR |= LCD_D6_RESET;
 132:Core/Inc/lcd_stm32f0.c ****     }
 133:Core/Inc/lcd_stm32f0.c ****     // DATALINE 5
 134:Core/Inc/lcd_stm32f0.c ****     if ((command & 0x02) != 0)		// Select bit 1 of command, if HIGH set Data line 5 (D5)
 135:Core/Inc/lcd_stm32f0.c ****     {
 136:Core/Inc/lcd_stm32f0.c ****     	GPIOB->BSRR |= LCD_D5_SET;         
ARM GAS  /var/folders/zf/mkqpy7tx7p1_khjt1h6hykn40000gn/T//ccF4YHcI.s 			page 49


 137:Core/Inc/lcd_stm32f0.c ****     }
 138:Core/Inc/lcd_stm32f0.c ****     else				//  else RESET D5
 139:Core/Inc/lcd_stm32f0.c ****     {
 140:Core/Inc/lcd_stm32f0.c ****     	GPIOB->BSRR |= LCD_D5_RESET;
 141:Core/Inc/lcd_stm32f0.c ****     }
 142:Core/Inc/lcd_stm32f0.c ****     // DATALINE 4
 143:Core/Inc/lcd_stm32f0.c ****     if ((command & 0x01) != 0)		// Select bit 0 of command, if HIGH set Data line 4 (D4)
 144:Core/Inc/lcd_stm32f0.c ****     {
 145:Core/Inc/lcd_stm32f0.c ****     	GPIOB->BSRR |= LCD_D4_SET;
 146:Core/Inc/lcd_stm32f0.c ****     }
 147:Core/Inc/lcd_stm32f0.c ****     else				//  else RESET D4
 148:Core/Inc/lcd_stm32f0.c ****     {
 149:Core/Inc/lcd_stm32f0.c ****     	GPIOB->BSRR |= LCD_D4_RESET;
 150:Core/Inc/lcd_stm32f0.c ****     }
 151:Core/Inc/lcd_stm32f0.c **** 
 152:Core/Inc/lcd_stm32f0.c ****     pulse_strobe();			// Send data
 153:Core/Inc/lcd_stm32f0.c ****     delay(3000);
 154:Core/Inc/lcd_stm32f0.c **** }
 155:Core/Inc/lcd_stm32f0.c **** 
 156:Core/Inc/lcd_stm32f0.c **** //====================================================================
 157:Core/Inc/lcd_stm32f0.c **** // INITIALISE LCD - LCD_Init()
 158:Core/Inc/lcd_stm32f0.c **** //====================================================================
 159:Core/Inc/lcd_stm32f0.c **** // DESCRIPTION: This function sets up the port lines for the LCD and
 160:Core/Inc/lcd_stm32f0.c **** //              intialises the module for use.
 161:Core/Inc/lcd_stm32f0.c **** //====================================================================
 162:Core/Inc/lcd_stm32f0.c **** // LCD SETUP:     - 4 bit mode      (Upper 4 data lines D4-D7 used)
 163:Core/Inc/lcd_stm32f0.c **** //                - Two lines used
 164:Core/Inc/lcd_stm32f0.c **** //                - Flashing cursor
 165:Core/Inc/lcd_stm32f0.c **** //====================================================================
 166:Core/Inc/lcd_stm32f0.c **** 
 167:Core/Inc/lcd_stm32f0.c **** void init_LCD(void)
 168:Core/Inc/lcd_stm32f0.c **** {
 169:Core/Inc/lcd_stm32f0.c ****     RCC->AHBENR |= RCC_AHBENR_GPIOAEN;	// Connect clocks to GPIO A, B and C
 170:Core/Inc/lcd_stm32f0.c ****     RCC->AHBENR |= RCC_AHBENR_GPIOBEN;
 171:Core/Inc/lcd_stm32f0.c ****     RCC->AHBENR |= RCC_AHBENR_GPIOCEN;
 172:Core/Inc/lcd_stm32f0.c **** 
 173:Core/Inc/lcd_stm32f0.c ****     GPIOA->MODER |= (GPIO_MODER_MODER12_0|GPIO_MODER_MODER15_0); // D6 and D7
 174:Core/Inc/lcd_stm32f0.c ****     GPIOB->MODER |= (GPIO_MODER_MODER8_0|GPIO_MODER_MODER9_0);   // D4 and D5
 175:Core/Inc/lcd_stm32f0.c ****     GPIOC->MODER |= (GPIO_MODER_MODER14_0|GPIO_MODER_MODER15_0); // RS and EN
 176:Core/Inc/lcd_stm32f0.c **** 
 177:Core/Inc/lcd_stm32f0.c ****     delay(30000);			// Allow the LCD some power up time (~30ms)
 178:Core/Inc/lcd_stm32f0.c **** 
 179:Core/Inc/lcd_stm32f0.c ****     lcd_command(POWER_UP);		// Power up initialization for the lcd
 180:Core/Inc/lcd_stm32f0.c ****     lcd_command(FOURBIT_MODE);		// Set LCD into 4 bit mode
 181:Core/Inc/lcd_stm32f0.c ****     lcd_command(DISPLAY_ON);		// Turn display on and set up cursor
 182:Core/Inc/lcd_stm32f0.c ****     lcd_command(TWOLINE_MODE);		// Set up 2 lines and character size
 183:Core/Inc/lcd_stm32f0.c ****     lcd_command(CLEAR);			// Clear display
 184:Core/Inc/lcd_stm32f0.c **** }
 185:Core/Inc/lcd_stm32f0.c **** 
 186:Core/Inc/lcd_stm32f0.c **** //====================================================================
 187:Core/Inc/lcd_stm32f0.c **** // WRITE A SINGLE CHARACTER TO THE LCD - LCD_PutChar(character)
 188:Core/Inc/lcd_stm32f0.c **** //====================================================================
 189:Core/Inc/lcd_stm32f0.c **** // DESCRIPTION: Puts a single character on the LCD at the next position
 190:Core/Inc/lcd_stm32f0.c **** //              on the screen. The character to be printed is in the input
 191:Core/Inc/lcd_stm32f0.c **** //              parameter. For numbers, letters and other common characters
 192:Core/Inc/lcd_stm32f0.c **** //              the ASCII code will produce correct display.
 193:Core/Inc/lcd_stm32f0.c **** //
ARM GAS  /var/folders/zf/mkqpy7tx7p1_khjt1h6hykn40000gn/T//ccF4YHcI.s 			page 50


 194:Core/Inc/lcd_stm32f0.c **** //              Refer to the Hitachi HD44780 datasheet for full character
 195:Core/Inc/lcd_stm32f0.c **** //              set information.
 196:Core/Inc/lcd_stm32f0.c **** //====================================================================
 197:Core/Inc/lcd_stm32f0.c **** 
 198:Core/Inc/lcd_stm32f0.c ****  void lcd_putchar(unsigned char character)
 199:Core/Inc/lcd_stm32f0.c **** {
 200:Core/Inc/lcd_stm32f0.c **** 	GPIOC->BSRR |= LCD_RS_SET;	// Register Select (RS) line HIGH (data sent will now be read as text);
 201:Core/Inc/lcd_stm32f0.c **** // Put upper nibble (upper 4-bits) on data lines, command mode
 202:Core/Inc/lcd_stm32f0.c **** // DATALINE 7
 203:Core/Inc/lcd_stm32f0.c ****         if ((character & 0x80) != 0) 	// Select bit 7 of command, if HIGH set Data line 7 (D7)
 204:Core/Inc/lcd_stm32f0.c ****         {
 205:Core/Inc/lcd_stm32f0.c ****         	GPIOA->BSRR |= LCD_D7_SET;
 206:Core/Inc/lcd_stm32f0.c ****         }
 207:Core/Inc/lcd_stm32f0.c ****         else				//  else RESET D7
 208:Core/Inc/lcd_stm32f0.c ****         {
 209:Core/Inc/lcd_stm32f0.c ****         	GPIOA->BSRR |= LCD_D7_RESET;
 210:Core/Inc/lcd_stm32f0.c ****         }
 211:Core/Inc/lcd_stm32f0.c ****         // DATALINE 6
 212:Core/Inc/lcd_stm32f0.c ****         if ((character & 0x40) != 0)	// Select bit 6 of command, if HIGH set Data line 6 (D6)      
 213:Core/Inc/lcd_stm32f0.c **** 	{
 214:Core/Inc/lcd_stm32f0.c ****             GPIOA->BSRR |= LCD_D6_SET;
 215:Core/Inc/lcd_stm32f0.c ****         }
 216:Core/Inc/lcd_stm32f0.c ****         else				//  else RESET D6
 217:Core/Inc/lcd_stm32f0.c **** 
 218:Core/Inc/lcd_stm32f0.c ****         {
 219:Core/Inc/lcd_stm32f0.c ****             GPIOA->BSRR |= LCD_D6_RESET;
 220:Core/Inc/lcd_stm32f0.c ****         }
 221:Core/Inc/lcd_stm32f0.c **** // DATALINE 5
 222:Core/Inc/lcd_stm32f0.c ****         if ((character & 0x20) != 0)	// Select bit 5 of command, if HIGH set Data line 5 (D5)
 223:Core/Inc/lcd_stm32f0.c **** 
 224:Core/Inc/lcd_stm32f0.c ****         {
 225:Core/Inc/lcd_stm32f0.c ****         	GPIOB->BSRR |= LCD_D5_SET;                 
 226:Core/Inc/lcd_stm32f0.c **** 	}
 227:Core/Inc/lcd_stm32f0.c ****         else				//  else RESET D5
 228:Core/Inc/lcd_stm32f0.c ****         {
 229:Core/Inc/lcd_stm32f0.c ****         	GPIOB->BSRR |= LCD_D5_RESET;
 230:Core/Inc/lcd_stm32f0.c ****         }
 231:Core/Inc/lcd_stm32f0.c **** // DATALINE 4
 232:Core/Inc/lcd_stm32f0.c ****         if ((character & 0x10) != 0)	// Select bit 4 of command, if HIGH set Data line 4 (D4) 
 233:Core/Inc/lcd_stm32f0.c ****         {
 234:Core/Inc/lcd_stm32f0.c ****         	GPIOB->BSRR |= LCD_D4_SET;
 235:Core/Inc/lcd_stm32f0.c ****         }
 236:Core/Inc/lcd_stm32f0.c ****         else				// else RESET D4
 237:Core/Inc/lcd_stm32f0.c ****         {
 238:Core/Inc/lcd_stm32f0.c ****         	GPIOB->BSRR |= LCD_D4_RESET;
 239:Core/Inc/lcd_stm32f0.c ****         }
 240:Core/Inc/lcd_stm32f0.c **** 
 241:Core/Inc/lcd_stm32f0.c ****         pulse_strobe ();		// Send data
 242:Core/Inc/lcd_stm32f0.c **** 
 243:Core/Inc/lcd_stm32f0.c **** // lower nibble to data lines
 244:Core/Inc/lcd_stm32f0.c ****         if ((character & 0x08) != 0)	// Select bit 3 of command, if HIGH set Data line 7 (D7) 
 245:Core/Inc/lcd_stm32f0.c ****         {
 246:Core/Inc/lcd_stm32f0.c ****         	GPIOA->BSRR |= LCD_D7_SET;
 247:Core/Inc/lcd_stm32f0.c ****         }
 248:Core/Inc/lcd_stm32f0.c ****         else				// else RESET D7
 249:Core/Inc/lcd_stm32f0.c ****         {
 250:Core/Inc/lcd_stm32f0.c ****         	GPIOA->BSRR |= LCD_D7_RESET;
ARM GAS  /var/folders/zf/mkqpy7tx7p1_khjt1h6hykn40000gn/T//ccF4YHcI.s 			page 51


 251:Core/Inc/lcd_stm32f0.c ****         }
 252:Core/Inc/lcd_stm32f0.c **** // DATALINE 6
 253:Core/Inc/lcd_stm32f0.c ****         if ((character & 0x04) != 0)	// Select bit 2 of command, if HIGH set Data line 6 (D6)      
 254:Core/Inc/lcd_stm32f0.c **** 	{
 255:Core/Inc/lcd_stm32f0.c ****             GPIOA->BSRR |= LCD_D6_SET;
 256:Core/Inc/lcd_stm32f0.c ****         }
 257:Core/Inc/lcd_stm32f0.c ****         else				// else RESET D6
 258:Core/Inc/lcd_stm32f0.c **** 
 259:Core/Inc/lcd_stm32f0.c ****         {
 260:Core/Inc/lcd_stm32f0.c ****             GPIOA->BSRR |= LCD_D6_RESET;
 261:Core/Inc/lcd_stm32f0.c ****         }
 262:Core/Inc/lcd_stm32f0.c **** // DATALINE 5
 263:Core/Inc/lcd_stm32f0.c ****         if ((character & 0x02) != 0)	// Select bit 1 of command, if HIGH set Data line 5 (D5)  
 264:Core/Inc/lcd_stm32f0.c ****         {
 265:Core/Inc/lcd_stm32f0.c ****         	GPIOB->BSRR |= LCD_D5_SET;       
 266:Core/Inc/lcd_stm32f0.c **** 	}
 267:Core/Inc/lcd_stm32f0.c ****         else				// else RESET D5
 268:Core/Inc/lcd_stm32f0.c ****         {
 269:Core/Inc/lcd_stm32f0.c ****         	GPIOB->BSRR |= LCD_D5_RESET;
 270:Core/Inc/lcd_stm32f0.c ****         }
 271:Core/Inc/lcd_stm32f0.c **** // DATALINE 4
 272:Core/Inc/lcd_stm32f0.c ****         if ((character & 0x01) != 0)	// Select bit 0 of command, if HIGH set Data line 4 (D4)
 273:Core/Inc/lcd_stm32f0.c ****         {
 274:Core/Inc/lcd_stm32f0.c ****         	GPIOB->BSRR |= LCD_D4_SET;
 275:Core/Inc/lcd_stm32f0.c ****         }
 276:Core/Inc/lcd_stm32f0.c ****         else				//  else RESET D4
 277:Core/Inc/lcd_stm32f0.c ****         {
 278:Core/Inc/lcd_stm32f0.c ****         	GPIOB->BSRR |= LCD_D4_RESET;
 279:Core/Inc/lcd_stm32f0.c ****         }
 280:Core/Inc/lcd_stm32f0.c **** 
 281:Core/Inc/lcd_stm32f0.c ****         pulse_strobe();			// Send data
 282:Core/Inc/lcd_stm32f0.c **** }
 283:Core/Inc/lcd_stm32f0.c **** 
 284:Core/Inc/lcd_stm32f0.c **** //====================================================================
 285:Core/Inc/lcd_stm32f0.c **** // WRITE A STRING TO THE LCD - LCD_PutString(ptr_String)
 286:Core/Inc/lcd_stm32f0.c **** //====================================================================
 287:Core/Inc/lcd_stm32f0.c **** // DESCRIPTION: Writes a string to the LCD
 288:Core/Inc/lcd_stm32f0.c **** //====================================================================
 289:Core/Inc/lcd_stm32f0.c **** 
 290:Core/Inc/lcd_stm32f0.c **** void lcd_putstring(char *instring)
 291:Core/Inc/lcd_stm32f0.c **** {
 292:Core/Inc/lcd_stm32f0.c ****     unsigned char count = 0;
 293:Core/Inc/lcd_stm32f0.c **** 
 294:Core/Inc/lcd_stm32f0.c ****     while (instring[count])		// Until the null terminator is reached
 295:Core/Inc/lcd_stm32f0.c ****     {
 296:Core/Inc/lcd_stm32f0.c ****     	lcd_putchar(instring[count]);	// Write each character to LCD
 297:Core/Inc/lcd_stm32f0.c **** 	    count++;
 298:Core/Inc/lcd_stm32f0.c **** 	 }
 299:Core/Inc/lcd_stm32f0.c **** }
 300:Core/Inc/lcd_stm32f0.c **** 
 301:Core/Inc/lcd_stm32f0.c **** 
 302:Core/Inc/lcd_stm32f0.c **** //====================================================================
 303:Core/Inc/lcd_stm32f0.c **** // PULSE STROBE - Pulse_Strobe()
 304:Core/Inc/lcd_stm32f0.c **** //====================================================================
 305:Core/Inc/lcd_stm32f0.c **** // DESCRIPTION: Pulse the strobe line of the LCD to indicate that data is ready.
 306:Core/Inc/lcd_stm32f0.c **** //====================================================================
 307:Core/Inc/lcd_stm32f0.c **** 
ARM GAS  /var/folders/zf/mkqpy7tx7p1_khjt1h6hykn40000gn/T//ccF4YHcI.s 			page 52


 308:Core/Inc/lcd_stm32f0.c **** void pulse_strobe(void)
 309:Core/Inc/lcd_stm32f0.c **** {
 310:Core/Inc/lcd_stm32f0.c ****     delay(20);				// Delay
 311:Core/Inc/lcd_stm32f0.c **** 
 312:Core/Inc/lcd_stm32f0.c ****     GPIOC->BSRR |= LCD_EN_SET;		// pull E (PC15) HIGH
 313:Core/Inc/lcd_stm32f0.c **** 
 314:Core/Inc/lcd_stm32f0.c ****     delay(20);				// Delay
 315:Core/Inc/lcd_stm32f0.c **** 
 316:Core/Inc/lcd_stm32f0.c ****     GPIOC->BSRR |= LCD_EN_RESET;	// Take EN LOW
 317:Core/Inc/lcd_stm32f0.c **** 
 318:Core/Inc/lcd_stm32f0.c ****     delay(20);				// Delay
 319:Core/Inc/lcd_stm32f0.c **** 
 320:Core/Inc/lcd_stm32f0.c ****     GPIOC->BSRR |= LCD_EN_SET;		// Take EN HIGH
 321:Core/Inc/lcd_stm32f0.c **** }
 322:Core/Inc/lcd_stm32f0.c **** 
 323:Core/Inc/lcd_stm32f0.c **** 
 324:Core/Inc/lcd_stm32f0.c **** //====================================================================
 325:Core/Inc/lcd_stm32f0.c **** // LOOP DELAY - delay(microseconds)
 326:Core/Inc/lcd_stm32f0.c **** //====================================================================
 327:Core/Inc/lcd_stm32f0.c **** // DESCRIPTION: A delay used by the LCD functions.
 328:Core/Inc/lcd_stm32f0.c **** //====================================================================
 329:Core/Inc/lcd_stm32f0.c **** 
 330:Core/Inc/lcd_stm32f0.c **** void delay(unsigned int microseconds)
 331:Core/Inc/lcd_stm32f0.c **** {
 299              		.loc 5 331 1 is_stmt 1 view -0
 300              		.cfi_startproc
 301              		@ args = 0, pretend = 0, frame = 8
 302              		@ frame_needed = 0, uses_anonymous_args = 0
 303              		@ link register save eliminated.
 304              		.loc 5 331 1 is_stmt 0 view .LVU87
 305 0000 82B0     		sub	sp, sp, #8
 306              		.cfi_def_cfa_offset 8
 332:Core/Inc/lcd_stm32f0.c **** 	  volatile unsigned int counter;
 307              		.loc 5 332 4 is_stmt 1 view .LVU88
 333:Core/Inc/lcd_stm32f0.c **** 	  microseconds *= 3;
 308              		.loc 5 333 4 view .LVU89
 309              		.loc 5 333 17 is_stmt 0 view .LVU90
 310 0002 4300     		lsls	r3, r0, #1
 311 0004 1818     		adds	r0, r3, r0
 312              	.LVL16:
